GAS LISTING /tmp/ccYs9ZNF.s 			page 1


   1              		.file	"buffer_CPP_API.cpp"
   2              		.option pic
   3              		.option norelax
   4              		.text
   5              	.Ltext0:
   6              		.section	.text._ZN9SemaphoreD2Ev,"axG",@progbits,_ZN9SemaphoreD5Ev,comdat
   7              		.align	2
   8              		.weak	_ZN9SemaphoreD2Ev
  10              	_ZN9SemaphoreD2Ev:
  11              	.LFB49:
  12              		.file 1 "src/../h/../h/syscall_cpp.hpp"
   1:src/../h/../h/syscall_cpp.hpp **** #ifndef _syscall_cpp
   2:src/../h/../h/syscall_cpp.hpp **** #define _syscall_cpp
   3:src/../h/../h/syscall_cpp.hpp **** 
   4:src/../h/../h/syscall_cpp.hpp **** #include "syscall_c.hpp"
   5:src/../h/../h/syscall_cpp.hpp **** #include "thread.hpp"
   6:src/../h/../h/syscall_cpp.hpp **** #include "../lib/console.h"
   7:src/../h/../h/syscall_cpp.hpp **** 
   8:src/../h/../h/syscall_cpp.hpp **** 
   9:src/../h/../h/syscall_cpp.hpp **** void* operator new (size_t);
  10:src/../h/../h/syscall_cpp.hpp **** void* operator new[](size_t);
  11:src/../h/../h/syscall_cpp.hpp **** void operator delete (void*);
  12:src/../h/../h/syscall_cpp.hpp **** void operator delete[](void*);
  13:src/../h/../h/syscall_cpp.hpp **** 
  14:src/../h/../h/syscall_cpp.hpp **** class Thread{
  15:src/../h/../h/syscall_cpp.hpp **** public:
  16:src/../h/../h/syscall_cpp.hpp ****     Thread(void (*body)(void*), void* arg){
  17:src/../h/../h/syscall_cpp.hpp ****         thread_create_cpp(&myHandle, body, arg);
  18:src/../h/../h/syscall_cpp.hpp ****     }
  19:src/../h/../h/syscall_cpp.hpp **** 
  20:src/../h/../h/syscall_cpp.hpp ****     virtual ~Thread(){}
  21:src/../h/../h/syscall_cpp.hpp **** 
  22:src/../h/../h/syscall_cpp.hpp ****     void start();
  23:src/../h/../h/syscall_cpp.hpp **** 
  24:src/../h/../h/syscall_cpp.hpp ****     static void dispatch();
  25:src/../h/../h/syscall_cpp.hpp ****     static void sleep(time_t);
  26:src/../h/../h/syscall_cpp.hpp **** 
  27:src/../h/../h/syscall_cpp.hpp ****     int getId();
  28:src/../h/../h/syscall_cpp.hpp **** protected:
  29:src/../h/../h/syscall_cpp.hpp ****     Thread(){
  30:src/../h/../h/syscall_cpp.hpp ****         thread_create_cpp(&myHandle, runWrapper, this);
  31:src/../h/../h/syscall_cpp.hpp ****     }
  32:src/../h/../h/syscall_cpp.hpp ****     virtual void run(){}
  33:src/../h/../h/syscall_cpp.hpp **** private:
  34:src/../h/../h/syscall_cpp.hpp ****     static void runWrapper(void*);
  35:src/../h/../h/syscall_cpp.hpp ****     thread_t myHandle;
  36:src/../h/../h/syscall_cpp.hpp **** 
  37:src/../h/../h/syscall_cpp.hpp **** };
  38:src/../h/../h/syscall_cpp.hpp **** 
  39:src/../h/../h/syscall_cpp.hpp **** class Semaphore{
  40:src/../h/../h/syscall_cpp.hpp **** public:
  41:src/../h/../h/syscall_cpp.hpp ****     Semaphore(unsigned init = 1){
  42:src/../h/../h/syscall_cpp.hpp ****         sem_open(&myHandle, init);
  43:src/../h/../h/syscall_cpp.hpp ****     }
  44:src/../h/../h/syscall_cpp.hpp ****     virtual ~Semaphore(){
  13              		.loc 1 44 13
  14              		.cfi_startproc
GAS LISTING /tmp/ccYs9ZNF.s 			page 2


  15              		.cfi_personality 0x9b,DW.ref.__gxx_personality_v0
  16              		.cfi_lsda 0x1b,.LLSDA49
  17              	.LVL0:
  18 0000 130101FF 		addi	sp,sp,-16
  19              		.cfi_def_cfa_offset 16
  20 0004 23341100 		sd	ra,8(sp)
  21 0008 23308100 		sd	s0,0(sp)
  22              		.cfi_offset 1, -8
  23              		.cfi_offset 8, -16
  24 000c 13040101 		addi	s0,sp,16
  25              		.cfi_def_cfa 8, 0
  26              	.LBB18:
  27              		.loc 1 44 25 is_stmt 0
  28 0010 97070000 		lla	a5,_ZTV9Semaphore+16
  28      93870700 
  29 0018 2330F500 		sd	a5,0(a0)
  45:src/../h/../h/syscall_cpp.hpp ****         sem_close(myHandle);
  30              		.loc 1 45 9 is_stmt 1
  31              		.loc 1 45 18 is_stmt 0
  32 001c 03358500 		ld	a0,8(a0)
  33              	.LVL1:
  34 0020 97000000 		call	_Z9sem_closeP4_sem@plt
  34      E7800000 
  35              	.LVL2:
  36              	.LBE18:
  46:src/../h/../h/syscall_cpp.hpp ****     }
  37              		.loc 1 46 5
  38 0028 83308100 		ld	ra,8(sp)
  39              		.cfi_restore 1
  40 002c 03340100 		ld	s0,0(sp)
  41              		.cfi_restore 8
  42              		.cfi_def_cfa 2, 16
  43 0030 13010101 		addi	sp,sp,16
  44              		.cfi_def_cfa_offset 0
  45 0034 67800000 		jr	ra
  46              		.cfi_endproc
  47              	.LFE49:
  48              		.globl	__gxx_personality_v0
  49              		.section	.gcc_except_table._ZN9SemaphoreD2Ev,"aG",@progbits,_ZN9SemaphoreD5Ev,comdat
  50              	.LLSDA49:
  51 0000 FF       		.byte	0xff
  52 0001 FF       		.byte	0xff
  53 0002 03       		.byte	0x3
  54 0003 00       		.byte	0
  55              		.section	.text._ZN9SemaphoreD2Ev,"axG",@progbits,_ZN9SemaphoreD5Ev,comdat
  57              		.weak	_ZN9SemaphoreD1Ev
  58              		.set	_ZN9SemaphoreD1Ev,_ZN9SemaphoreD2Ev
  59              		.section	.text._ZN9SemaphoreD0Ev,"axG",@progbits,_ZN9SemaphoreD5Ev,comdat
  60              		.align	2
  61              		.weak	_ZN9SemaphoreD0Ev
  63              	_ZN9SemaphoreD0Ev:
  64              	.LFB51:
  44:src/../h/../h/syscall_cpp.hpp ****         sem_close(myHandle);
  65              		.loc 1 44 13 is_stmt 1
  66              		.cfi_startproc
  67              		.cfi_personality 0x9b,DW.ref.__gxx_personality_v0
  68              		.cfi_lsda 0x1b,.LLSDA51
GAS LISTING /tmp/ccYs9ZNF.s 			page 3


  69              	.LVL3:
  70 0000 130101FE 		addi	sp,sp,-32
  71              		.cfi_def_cfa_offset 32
  72 0004 233C1100 		sd	ra,24(sp)
  73 0008 23388100 		sd	s0,16(sp)
  74 000c 23349100 		sd	s1,8(sp)
  75              		.cfi_offset 1, -8
  76              		.cfi_offset 8, -16
  77              		.cfi_offset 9, -24
  78 0010 13040102 		addi	s0,sp,32
  79              		.cfi_def_cfa 8, 0
  80 0014 93040500 		mv	s1,a0
  81              	.LVL4:
  82              	.LBB19:
  83              	.LBB20:
  44:src/../h/../h/syscall_cpp.hpp ****         sem_close(myHandle);
  84              		.loc 1 44 25 is_stmt 0
  85 0018 97070000 		lla	a5,_ZTV9Semaphore+16
  85      93870700 
  86 0020 2330F500 		sd	a5,0(a0)
  45:src/../h/../h/syscall_cpp.hpp ****         sem_close(myHandle);
  87              		.loc 1 45 9 is_stmt 1
  45:src/../h/../h/syscall_cpp.hpp ****         sem_close(myHandle);
  88              		.loc 1 45 18 is_stmt 0
  89 0024 03358500 		ld	a0,8(a0)
  90              	.LVL5:
  91 0028 97000000 		call	_Z9sem_closeP4_sem@plt
  91      E7800000 
  92              	.LVL6:
  93              	.LBE20:
  94              	.LBE19:
  95              		.loc 1 46 5
  96 0030 13850400 		mv	a0,s1
  97              	.LEHB0:
  98 0034 97000000 		call	_ZdlPv@plt
  98      E7800000 
  99              	.LVL7:
 100              	.LEHE0:
 101 003c 83308101 		ld	ra,24(sp)
 102              		.cfi_restore 1
 103 0040 03340101 		ld	s0,16(sp)
 104              		.cfi_restore 8
 105              		.cfi_def_cfa 2, 32
 106 0044 83348100 		ld	s1,8(sp)
 107              		.cfi_restore 9
 108              	.LVL8:
 109 0048 13010102 		addi	sp,sp,32
 110              		.cfi_def_cfa_offset 0
 111 004c 67800000 		jr	ra
 112              		.cfi_endproc
 113              	.LFE51:
 114              		.section	.gcc_except_table._ZN9SemaphoreD0Ev,"aG",@progbits,_ZN9SemaphoreD5Ev,comdat
 115              	.LLSDA51:
 116 0000 FF       		.byte	0xff
 117 0001 FF       		.byte	0xff
 118 0002 03       		.byte	0x3
 119 0003 0D       		.byte	0xd
GAS LISTING /tmp/ccYs9ZNF.s 			page 4


 120 0004 00000000 		.4byte	.LEHB0-.LFB51
 121 0008 00000000 		.4byte	.LEHE0-.LEHB0
 122 000c 00000000 		.4byte	0
 123 0010 00       		.byte	0
 124              		.section	.text._ZN9SemaphoreD0Ev,"axG",@progbits,_ZN9SemaphoreD5Ev,comdat
 126              		.text
 127              		.align	2
 128              		.globl	_ZN9BufferCPPC2Ei
 130              	_ZN9BufferCPPC2Ei:
 131              	.LFB58:
 132              		.file 2 "src/buffer_CPP_API.cpp"
   1:src/buffer_CPP_API.cpp **** #include "../h/buffer_CPP_API.hpp"
   2:src/buffer_CPP_API.cpp **** 
   3:src/buffer_CPP_API.cpp **** BufferCPP::BufferCPP(int _cap) : cap(_cap + 1), head(0), tail(0) {
 133              		.loc 2 3 1 is_stmt 1
 134              		.cfi_startproc
 135              		.cfi_personality 0x9b,DW.ref.__gxx_personality_v0
 136              		.cfi_lsda 0x1b,.LLSDA58
 137              	.LVL9:
 138 0000 130101FD 		addi	sp,sp,-48
 139              		.cfi_def_cfa_offset 48
 140 0004 23341102 		sd	ra,40(sp)
 141 0008 23308102 		sd	s0,32(sp)
 142 000c 233C9100 		sd	s1,24(sp)
 143 0010 23382101 		sd	s2,16(sp)
 144 0014 23343101 		sd	s3,8(sp)
 145              		.cfi_offset 1, -8
 146              		.cfi_offset 8, -16
 147              		.cfi_offset 9, -24
 148              		.cfi_offset 18, -32
 149              		.cfi_offset 19, -40
 150 0018 13040103 		addi	s0,sp,48
 151              		.cfi_def_cfa 8, 0
 152 001c 93040500 		mv	s1,a0
 153 0020 93890500 		mv	s3,a1
 154              	.LBB21:
 155              		.loc 2 3 43 is_stmt 0
 156 0024 9B871500 		addiw	a5,a1,1
 157 0028 1B850700 		sext.w	a0,a5
 158              	.LVL10:
 159              		.loc 2 3 64
 160 002c 23A0F400 		sw	a5,0(s1)
 161 0030 23A80400 		sw	zero,16(s1)
 162 0034 23AA0400 		sw	zero,20(s1)
   4:src/buffer_CPP_API.cpp ****     buffer = (int *)mem_alloc(sizeof(int) * cap);
 163              		.loc 2 4 5 is_stmt 1
 164              		.loc 2 4 30 is_stmt 0
 165 0038 13152500 		slli	a0,a0,2
 166              	.LEHB1:
 167 003c 97000000 		call	_Z9mem_allocm@plt
 167      E7800000 
 168              	.LVL11:
 169              		.loc 2 4 12
 170 0044 23B4A400 		sd	a0,8(s1)
   5:src/buffer_CPP_API.cpp ****     itemAvailable = new Semaphore(0);
 171              		.loc 2 5 5 is_stmt 1
 172              		.loc 2 5 36 is_stmt 0
GAS LISTING /tmp/ccYs9ZNF.s 			page 5


 173 0048 13050001 		li	a0,16
 174 004c 97000000 		call	_Znwm@plt
 174      E7800000 
 175              	.LVL12:
 176              	.LEHE1:
 177 0054 13090500 		mv	s2,a0
 178              	.LVL13:
 179              	.LBB22:
 180              	.LBB23:
 181              	.LBB24:
  41:src/../h/../h/syscall_cpp.hpp ****         sem_open(&myHandle, init);
 182              		.loc 1 41 33
 183 0058 97070000 		lla	a5,_ZTV9Semaphore+16
 183      93870700 
 184 0060 2330F500 		sd	a5,0(a0)
  42:src/../h/../h/syscall_cpp.hpp ****     }
 185              		.loc 1 42 9 is_stmt 1
  42:src/../h/../h/syscall_cpp.hpp ****     }
 186              		.loc 1 42 17 is_stmt 0
 187 0064 93050000 		li	a1,0
 188 0068 13058500 		addi	a0,a0,8
 189              	.LVL14:
 190              	.LEHB2:
 191 006c 97000000 		call	_Z8sem_openPP4_semj@plt
 191      E7800000 
 192              	.LVL15:
 193              	.LEHE2:
 194              	.LBE24:
 195              	.LBE23:
 196              	.LBE22:
 197              		.loc 2 5 19 discriminator 2
 198 0074 23B02403 		sd	s2,32(s1)
   6:src/buffer_CPP_API.cpp ****     spaceAvailable = new Semaphore(_cap);
 199              		.loc 2 6 5 is_stmt 1 discriminator 2
 200              		.loc 2 6 40 is_stmt 0 discriminator 2
 201 0078 13050001 		li	a0,16
 202              	.LEHB3:
 203 007c 97000000 		call	_Znwm@plt
 203      E7800000 
 204              	.LVL16:
 205              	.LEHE3:
 206 0084 13090500 		mv	s2,a0
 207              	.LVL17:
 208              	.LBB25:
 209              	.LBB26:
 210              	.LBB27:
  41:src/../h/../h/syscall_cpp.hpp ****         sem_open(&myHandle, init);
 211              		.loc 1 41 33 discriminator 2
 212 0088 97070000 		lla	a5,_ZTV9Semaphore+16
 212      93870700 
 213 0090 2330F500 		sd	a5,0(a0)
  42:src/../h/../h/syscall_cpp.hpp ****     }
 214              		.loc 1 42 9 is_stmt 1 discriminator 2
  42:src/../h/../h/syscall_cpp.hpp ****     }
 215              		.loc 1 42 17 is_stmt 0 discriminator 2
 216 0094 93850900 		mv	a1,s3
 217 0098 13058500 		addi	a0,a0,8
GAS LISTING /tmp/ccYs9ZNF.s 			page 6


 218              	.LVL18:
 219              	.LEHB4:
 220 009c 97000000 		call	_Z8sem_openPP4_semj@plt
 220      E7800000 
 221              	.LVL19:
 222              	.LEHE4:
 223              	.LBE27:
 224              	.LBE26:
 225              	.LBE25:
 226              		.loc 2 6 20 discriminator 2
 227 00a4 23BC2401 		sd	s2,24(s1)
   7:src/buffer_CPP_API.cpp ****     mutexHead = new Semaphore(1);
 228              		.loc 2 7 5 is_stmt 1 discriminator 2
 229              		.loc 2 7 32 is_stmt 0 discriminator 2
 230 00a8 13050001 		li	a0,16
 231              	.LEHB5:
 232 00ac 97000000 		call	_Znwm@plt
 232      E7800000 
 233              	.LVL20:
 234              	.LEHE5:
 235 00b4 13090500 		mv	s2,a0
 236              	.LVL21:
 237              	.LBB28:
 238              	.LBB29:
 239              	.LBB30:
  41:src/../h/../h/syscall_cpp.hpp ****         sem_open(&myHandle, init);
 240              		.loc 1 41 33 discriminator 2
 241 00b8 97070000 		lla	a5,_ZTV9Semaphore+16
 241      93870700 
 242 00c0 2330F500 		sd	a5,0(a0)
  42:src/../h/../h/syscall_cpp.hpp ****     }
 243              		.loc 1 42 9 is_stmt 1 discriminator 2
  42:src/../h/../h/syscall_cpp.hpp ****     }
 244              		.loc 1 42 17 is_stmt 0 discriminator 2
 245 00c4 93051000 		li	a1,1
 246 00c8 13058500 		addi	a0,a0,8
 247              	.LVL22:
 248              	.LEHB6:
 249 00cc 97000000 		call	_Z8sem_openPP4_semj@plt
 249      E7800000 
 250              	.LVL23:
 251              	.LEHE6:
 252              	.LBE30:
 253              	.LBE29:
 254              	.LBE28:
 255              		.loc 2 7 15 discriminator 2
 256 00d4 23B42403 		sd	s2,40(s1)
   8:src/buffer_CPP_API.cpp ****     mutexTail = new Semaphore(1);
 257              		.loc 2 8 5 is_stmt 1 discriminator 2
 258              		.loc 2 8 32 is_stmt 0 discriminator 2
 259 00d8 13050001 		li	a0,16
 260              	.LEHB7:
 261 00dc 97000000 		call	_Znwm@plt
 261      E7800000 
 262              	.LVL24:
 263              	.LEHE7:
 264 00e4 13090500 		mv	s2,a0
GAS LISTING /tmp/ccYs9ZNF.s 			page 7


 265              	.LVL25:
 266              	.LBB31:
 267              	.LBB32:
 268              	.LBB33:
  41:src/../h/../h/syscall_cpp.hpp ****         sem_open(&myHandle, init);
 269              		.loc 1 41 33 discriminator 2
 270 00e8 97070000 		lla	a5,_ZTV9Semaphore+16
 270      93870700 
 271 00f0 2330F500 		sd	a5,0(a0)
  42:src/../h/../h/syscall_cpp.hpp ****     }
 272              		.loc 1 42 9 is_stmt 1 discriminator 2
  42:src/../h/../h/syscall_cpp.hpp ****     }
 273              		.loc 1 42 17 is_stmt 0 discriminator 2
 274 00f4 93051000 		li	a1,1
 275 00f8 13058500 		addi	a0,a0,8
 276              	.LVL26:
 277              	.LEHB8:
 278 00fc 97000000 		call	_Z8sem_openPP4_semj@plt
 278      E7800000 
 279              	.LVL27:
 280              	.LEHE8:
 281              	.LBE33:
 282              	.LBE32:
 283              	.LBE31:
 284              		.loc 2 8 15 discriminator 2
 285 0104 23B82403 		sd	s2,48(s1)
 286              	.LBE21:
   9:src/buffer_CPP_API.cpp **** }
 287              		.loc 2 9 1 discriminator 2
 288 0108 83308102 		ld	ra,40(sp)
 289              		.cfi_remember_state
 290              		.cfi_restore 1
 291 010c 03340102 		ld	s0,32(sp)
 292              		.cfi_restore 8
 293              		.cfi_def_cfa 2, 48
 294 0110 83348101 		ld	s1,24(sp)
 295              		.cfi_restore 9
 296              	.LVL28:
 297 0114 03390101 		ld	s2,16(sp)
 298              		.cfi_restore 18
 299 0118 83398100 		ld	s3,8(sp)
 300              		.cfi_restore 19
 301 011c 13010103 		addi	sp,sp,48
 302              		.cfi_def_cfa_offset 0
 303 0120 67800000 		jr	ra
 304              	.LVL29:
 305              	.L10:
 306              		.cfi_restore_state
 307 0124 93040500 		mv	s1,a0
 308              	.LVL30:
 309              	.LBB34:
   5:src/buffer_CPP_API.cpp ****     spaceAvailable = new Semaphore(_cap);
 310              		.loc 2 5 36
 311 0128 13050900 		mv	a0,s2
 312 012c 97000000 		call	_ZdlPv@plt
 312      E7800000 
 313              	.LVL31:
GAS LISTING /tmp/ccYs9ZNF.s 			page 8


 314 0134 13850400 		mv	a0,s1
 315              	.LEHB9:
 316 0138 97000000 		call	_Unwind_Resume@plt
 316      E7800000 
 317              	.LVL32:
 318              	.LEHE9:
 319              	.L11:
 320 0140 93040500 		mv	s1,a0
 321              	.LVL33:
   6:src/buffer_CPP_API.cpp ****     mutexHead = new Semaphore(1);
 322              		.loc 2 6 40
 323 0144 13050900 		mv	a0,s2
 324 0148 97000000 		call	_ZdlPv@plt
 324      E7800000 
 325              	.LVL34:
 326 0150 13850400 		mv	a0,s1
 327              	.LEHB10:
 328 0154 97000000 		call	_Unwind_Resume@plt
 328      E7800000 
 329              	.LVL35:
 330              	.LEHE10:
 331              	.L12:
 332 015c 93040500 		mv	s1,a0
 333              	.LVL36:
   7:src/buffer_CPP_API.cpp ****     mutexTail = new Semaphore(1);
 334              		.loc 2 7 32
 335 0160 13050900 		mv	a0,s2
 336 0164 97000000 		call	_ZdlPv@plt
 336      E7800000 
 337              	.LVL37:
 338 016c 13850400 		mv	a0,s1
 339              	.LEHB11:
 340 0170 97000000 		call	_Unwind_Resume@plt
 340      E7800000 
 341              	.LVL38:
 342              	.LEHE11:
 343              	.L13:
 344 0178 93040500 		mv	s1,a0
 345              	.LVL39:
   8:src/buffer_CPP_API.cpp **** }
 346              		.loc 2 8 32
 347 017c 13050900 		mv	a0,s2
 348 0180 97000000 		call	_ZdlPv@plt
 348      E7800000 
 349              	.LVL40:
 350 0188 13850400 		mv	a0,s1
 351              	.LEHB12:
 352 018c 97000000 		call	_Unwind_Resume@plt
 352      E7800000 
 353              	.LVL41:
 354              	.LEHE12:
 355              	.LBE34:
 356              		.cfi_endproc
 357              	.LFE58:
 358              		.section	.gcc_except_table,"a",@progbits
 359              	.LLSDA58:
 360 0000 FF       		.byte	0xff
GAS LISTING /tmp/ccYs9ZNF.s 			page 9


 361 0001 FF       		.byte	0xff
 362 0002 03       		.byte	0x3
 363 0003 9C01     		.byte	0x9c,0x1
 364 0005 00000000 		.4byte	.LEHB1-.LFB58
 365 0009 00000000 		.4byte	.LEHE1-.LEHB1
 366 000d 00000000 		.4byte	0
 367 0011 00       		.byte	0
 368 0012 00000000 		.4byte	.LEHB2-.LFB58
 369 0016 00000000 		.4byte	.LEHE2-.LEHB2
 370 001a 00000000 		.4byte	.L10-.LFB58
 371 001e 00       		.byte	0
 372 001f 00000000 		.4byte	.LEHB3-.LFB58
 373 0023 00000000 		.4byte	.LEHE3-.LEHB3
 374 0027 00000000 		.4byte	0
 375 002b 00       		.byte	0
 376 002c 00000000 		.4byte	.LEHB4-.LFB58
 377 0030 00000000 		.4byte	.LEHE4-.LEHB4
 378 0034 00000000 		.4byte	.L11-.LFB58
 379 0038 00       		.byte	0
 380 0039 00000000 		.4byte	.LEHB5-.LFB58
 381 003d 00000000 		.4byte	.LEHE5-.LEHB5
 382 0041 00000000 		.4byte	0
 383 0045 00       		.byte	0
 384 0046 00000000 		.4byte	.LEHB6-.LFB58
 385 004a 00000000 		.4byte	.LEHE6-.LEHB6
 386 004e 00000000 		.4byte	.L12-.LFB58
 387 0052 00       		.byte	0
 388 0053 00000000 		.4byte	.LEHB7-.LFB58
 389 0057 00000000 		.4byte	.LEHE7-.LEHB7
 390 005b 00000000 		.4byte	0
 391 005f 00       		.byte	0
 392 0060 00000000 		.4byte	.LEHB8-.LFB58
 393 0064 00000000 		.4byte	.LEHE8-.LEHB8
 394 0068 00000000 		.4byte	.L13-.LFB58
 395 006c 00       		.byte	0
 396 006d 00000000 		.4byte	.LEHB9-.LFB58
 397 0071 00000000 		.4byte	.LEHE9-.LEHB9
 398 0075 00000000 		.4byte	0
 399 0079 00       		.byte	0
 400 007a 00000000 		.4byte	.LEHB10-.LFB58
 401 007e 00000000 		.4byte	.LEHE10-.LEHB10
 402 0082 00000000 		.4byte	0
 403 0086 00       		.byte	0
 404 0087 00000000 		.4byte	.LEHB11-.LFB58
 405 008b 00000000 		.4byte	.LEHE11-.LEHB11
 406 008f 00000000 		.4byte	0
 407 0093 00       		.byte	0
 408 0094 00000000 		.4byte	.LEHB12-.LFB58
 409 0098 00000000 		.4byte	.LEHE12-.LEHB12
 410 009c 00000000 		.4byte	0
 411 00a0 00       		.byte	0
 412              		.text
 414              		.globl	_ZN9BufferCPPC1Ei
 415              		.set	_ZN9BufferCPPC1Ei,_ZN9BufferCPPC2Ei
 416              		.align	2
 417              		.globl	_ZN9BufferCPP3putEi
 419              	_ZN9BufferCPP3putEi:
GAS LISTING /tmp/ccYs9ZNF.s 			page 10


 420              	.LFB63:
  10:src/buffer_CPP_API.cpp **** 
  11:src/buffer_CPP_API.cpp **** BufferCPP::~BufferCPP() {
  12:src/buffer_CPP_API.cpp ****     Console::putc('\n');
  13:src/buffer_CPP_API.cpp ****     printString("Buffer deleted!\n");
  14:src/buffer_CPP_API.cpp ****     while (getCnt()) {
  15:src/buffer_CPP_API.cpp ****         char ch = buffer[head];
  16:src/buffer_CPP_API.cpp ****         Console::putc(ch);
  17:src/buffer_CPP_API.cpp ****         head = (head + 1) % cap;
  18:src/buffer_CPP_API.cpp ****     }
  19:src/buffer_CPP_API.cpp ****     Console::putc('!');
  20:src/buffer_CPP_API.cpp ****     Console::putc('\n');
  21:src/buffer_CPP_API.cpp **** 
  22:src/buffer_CPP_API.cpp ****     mem_free(buffer);
  23:src/buffer_CPP_API.cpp ****     delete itemAvailable;
  24:src/buffer_CPP_API.cpp ****     delete spaceAvailable;
  25:src/buffer_CPP_API.cpp ****     delete mutexTail;
  26:src/buffer_CPP_API.cpp ****     delete mutexHead;
  27:src/buffer_CPP_API.cpp **** 
  28:src/buffer_CPP_API.cpp **** }
  29:src/buffer_CPP_API.cpp **** 
  30:src/buffer_CPP_API.cpp **** void BufferCPP::put(int val) {
 421              		.loc 2 30 30 is_stmt 1
 422              		.cfi_startproc
 423              	.LVL42:
 424 0194 130101FE 		addi	sp,sp,-32
 425              		.cfi_def_cfa_offset 32
 426 0198 233C1100 		sd	ra,24(sp)
 427 019c 23388100 		sd	s0,16(sp)
 428 01a0 23349100 		sd	s1,8(sp)
 429 01a4 23302101 		sd	s2,0(sp)
 430              		.cfi_offset 1, -8
 431              		.cfi_offset 8, -16
 432              		.cfi_offset 9, -24
 433              		.cfi_offset 18, -32
 434 01a8 13040102 		addi	s0,sp,32
 435              		.cfi_def_cfa 8, 0
 436 01ac 93040500 		mv	s1,a0
 437 01b0 13890500 		mv	s2,a1
  31:src/buffer_CPP_API.cpp ****     spaceAvailable->wait();
 438              		.loc 2 31 5
 439              		.loc 2 31 25 is_stmt 0
 440 01b4 03358501 		ld	a0,24(a0)
 441              	.LVL43:
 442 01b8 97000000 		call	_ZN9Semaphore4waitEv@plt
 442      E7800000 
 443              	.LVL44:
  32:src/buffer_CPP_API.cpp **** 
  33:src/buffer_CPP_API.cpp ****     mutexTail->wait();
 444              		.loc 2 33 5 is_stmt 1
 445              		.loc 2 33 20 is_stmt 0
 446 01c0 03B50403 		ld	a0,48(s1)
 447 01c4 97000000 		call	_ZN9Semaphore4waitEv@plt
 447      E7800000 
 448              	.LVL45:
  34:src/buffer_CPP_API.cpp ****     buffer[tail] = val;
 449              		.loc 2 34 5 is_stmt 1
GAS LISTING /tmp/ccYs9ZNF.s 			page 11


 450 01cc 83B78400 		ld	a5,8(s1)
 451              		.loc 2 34 12 is_stmt 0
 452 01d0 03A74401 		lw	a4,20(s1)
 453              		.loc 2 34 16
 454 01d4 13172700 		slli	a4,a4,2
 455 01d8 B387E700 		add	a5,a5,a4
 456              		.loc 2 34 18
 457 01dc 23A02701 		sw	s2,0(a5)
  35:src/buffer_CPP_API.cpp ****     tail = (tail + 1) % cap;
 458              		.loc 2 35 5 is_stmt 1
 459              		.loc 2 35 13 is_stmt 0
 460 01e0 83A74401 		lw	a5,20(s1)
 461              		.loc 2 35 18
 462 01e4 9B871700 		addiw	a5,a5,1
 463              		.loc 2 35 25
 464 01e8 03A70400 		lw	a4,0(s1)
 465              		.loc 2 35 23
 466 01ec BBE7E702 		remw	a5,a5,a4
 467              		.loc 2 35 10
 468 01f0 23AAF400 		sw	a5,20(s1)
  36:src/buffer_CPP_API.cpp ****     mutexTail->signal();
 469              		.loc 2 36 5 is_stmt 1
 470              		.loc 2 36 22 is_stmt 0
 471 01f4 03B50403 		ld	a0,48(s1)
 472 01f8 97000000 		call	_ZN9Semaphore6signalEv@plt
 472      E7800000 
 473              	.LVL46:
  37:src/buffer_CPP_API.cpp **** 
  38:src/buffer_CPP_API.cpp ****     itemAvailable->signal();
 474              		.loc 2 38 5 is_stmt 1
 475              		.loc 2 38 26 is_stmt 0
 476 0200 03B50402 		ld	a0,32(s1)
 477 0204 97000000 		call	_ZN9Semaphore6signalEv@plt
 477      E7800000 
 478              	.LVL47:
  39:src/buffer_CPP_API.cpp **** 
  40:src/buffer_CPP_API.cpp **** }
 479              		.loc 2 40 1
 480 020c 83308101 		ld	ra,24(sp)
 481              		.cfi_restore 1
 482 0210 03340101 		ld	s0,16(sp)
 483              		.cfi_restore 8
 484              		.cfi_def_cfa 2, 32
 485 0214 83348100 		ld	s1,8(sp)
 486              		.cfi_restore 9
 487              	.LVL48:
 488 0218 03390100 		ld	s2,0(sp)
 489              		.cfi_restore 18
 490 021c 13010102 		addi	sp,sp,32
 491              		.cfi_def_cfa_offset 0
 492 0220 67800000 		jr	ra
 493              		.cfi_endproc
 494              	.LFE63:
 496              		.align	2
 497              		.globl	_ZN9BufferCPP3getEv
 499              	_ZN9BufferCPP3getEv:
 500              	.LFB64:
GAS LISTING /tmp/ccYs9ZNF.s 			page 12


  41:src/buffer_CPP_API.cpp **** 
  42:src/buffer_CPP_API.cpp **** int BufferCPP::get() {
 501              		.loc 2 42 22 is_stmt 1
 502              		.cfi_startproc
 503              	.LVL49:
 504 0224 130101FE 		addi	sp,sp,-32
 505              		.cfi_def_cfa_offset 32
 506 0228 233C1100 		sd	ra,24(sp)
 507 022c 23388100 		sd	s0,16(sp)
 508 0230 23349100 		sd	s1,8(sp)
 509 0234 23302101 		sd	s2,0(sp)
 510              		.cfi_offset 1, -8
 511              		.cfi_offset 8, -16
 512              		.cfi_offset 9, -24
 513              		.cfi_offset 18, -32
 514 0238 13040102 		addi	s0,sp,32
 515              		.cfi_def_cfa 8, 0
 516 023c 93040500 		mv	s1,a0
  43:src/buffer_CPP_API.cpp ****     itemAvailable->wait();
 517              		.loc 2 43 5
 518              		.loc 2 43 24 is_stmt 0
 519 0240 03350502 		ld	a0,32(a0)
 520              	.LVL50:
 521 0244 97000000 		call	_ZN9Semaphore4waitEv@plt
 521      E7800000 
 522              	.LVL51:
  44:src/buffer_CPP_API.cpp **** 
  45:src/buffer_CPP_API.cpp ****     mutexHead->wait();
 523              		.loc 2 45 5 is_stmt 1
 524              		.loc 2 45 20 is_stmt 0
 525 024c 03B58402 		ld	a0,40(s1)
 526 0250 97000000 		call	_ZN9Semaphore4waitEv@plt
 526      E7800000 
 527              	.LVL52:
  46:src/buffer_CPP_API.cpp **** 
  47:src/buffer_CPP_API.cpp ****     int ret = buffer[head];
 528              		.loc 2 47 5 is_stmt 1
 529              		.loc 2 47 15 is_stmt 0
 530 0258 03B78400 		ld	a4,8(s1)
 531              		.loc 2 47 22
 532 025c 83A70401 		lw	a5,16(s1)
 533              		.loc 2 47 26
 534 0260 93962700 		slli	a3,a5,2
 535 0264 3307D700 		add	a4,a4,a3
 536              		.loc 2 47 9
 537 0268 03290700 		lw	s2,0(a4)
 538              	.LVL53:
  48:src/buffer_CPP_API.cpp ****     head = (head + 1) % cap;
 539              		.loc 2 48 5 is_stmt 1
 540              		.loc 2 48 18 is_stmt 0
 541 026c 9B871700 		addiw	a5,a5,1
 542              		.loc 2 48 25
 543 0270 03A70400 		lw	a4,0(s1)
 544              		.loc 2 48 23
 545 0274 BBE7E702 		remw	a5,a5,a4
 546              		.loc 2 48 10
 547 0278 23A8F400 		sw	a5,16(s1)
GAS LISTING /tmp/ccYs9ZNF.s 			page 13


  49:src/buffer_CPP_API.cpp ****     mutexHead->signal();
 548              		.loc 2 49 5 is_stmt 1
 549              		.loc 2 49 22 is_stmt 0
 550 027c 03B58402 		ld	a0,40(s1)
 551 0280 97000000 		call	_ZN9Semaphore6signalEv@plt
 551      E7800000 
 552              	.LVL54:
  50:src/buffer_CPP_API.cpp **** 
  51:src/buffer_CPP_API.cpp ****     spaceAvailable->signal();
 553              		.loc 2 51 5 is_stmt 1
 554              		.loc 2 51 27 is_stmt 0
 555 0288 03B58401 		ld	a0,24(s1)
 556 028c 97000000 		call	_ZN9Semaphore6signalEv@plt
 556      E7800000 
 557              	.LVL55:
  52:src/buffer_CPP_API.cpp **** 
  53:src/buffer_CPP_API.cpp ****     return ret;
 558              		.loc 2 53 5 is_stmt 1
  54:src/buffer_CPP_API.cpp **** }
 559              		.loc 2 54 1 is_stmt 0
 560 0294 13050900 		mv	a0,s2
 561 0298 83308101 		ld	ra,24(sp)
 562              		.cfi_restore 1
 563 029c 03340101 		ld	s0,16(sp)
 564              		.cfi_restore 8
 565              		.cfi_def_cfa 2, 32
 566 02a0 83348100 		ld	s1,8(sp)
 567              		.cfi_restore 9
 568              	.LVL56:
 569 02a4 03390100 		ld	s2,0(sp)
 570              		.cfi_restore 18
 571              	.LVL57:
 572 02a8 13010102 		addi	sp,sp,32
 573              		.cfi_def_cfa_offset 0
 574 02ac 67800000 		jr	ra
 575              		.cfi_endproc
 576              	.LFE64:
 578              		.align	2
 579              		.globl	_ZN9BufferCPP6getCntEv
 581              	_ZN9BufferCPP6getCntEv:
 582              	.LFB65:
  55:src/buffer_CPP_API.cpp **** 
  56:src/buffer_CPP_API.cpp **** int BufferCPP::getCnt() {
 583              		.loc 2 56 25 is_stmt 1
 584              		.cfi_startproc
 585              	.LVL58:
 586 02b0 130101FE 		addi	sp,sp,-32
 587              		.cfi_def_cfa_offset 32
 588 02b4 233C1100 		sd	ra,24(sp)
 589 02b8 23388100 		sd	s0,16(sp)
 590 02bc 23349100 		sd	s1,8(sp)
 591 02c0 23302101 		sd	s2,0(sp)
 592              		.cfi_offset 1, -8
 593              		.cfi_offset 8, -16
 594              		.cfi_offset 9, -24
 595              		.cfi_offset 18, -32
 596 02c4 13040102 		addi	s0,sp,32
GAS LISTING /tmp/ccYs9ZNF.s 			page 14


 597              		.cfi_def_cfa 8, 0
 598 02c8 93040500 		mv	s1,a0
  57:src/buffer_CPP_API.cpp ****     int ret;
 599              		.loc 2 57 5
  58:src/buffer_CPP_API.cpp **** 
  59:src/buffer_CPP_API.cpp ****     mutexHead->wait();
 600              		.loc 2 59 5
 601              		.loc 2 59 20 is_stmt 0
 602 02cc 03358502 		ld	a0,40(a0)
 603              	.LVL59:
 604 02d0 97000000 		call	_ZN9Semaphore4waitEv@plt
 604      E7800000 
 605              	.LVL60:
  60:src/buffer_CPP_API.cpp ****     mutexTail->wait();
 606              		.loc 2 60 5 is_stmt 1
 607              		.loc 2 60 20 is_stmt 0
 608 02d8 03B50403 		ld	a0,48(s1)
 609 02dc 97000000 		call	_ZN9Semaphore4waitEv@plt
 609      E7800000 
 610              	.LVL61:
  61:src/buffer_CPP_API.cpp **** 
  62:src/buffer_CPP_API.cpp ****     if (tail >= head) {
 611              		.loc 2 62 5 is_stmt 1
 612              		.loc 2 62 9 is_stmt 0
 613 02e4 83A74401 		lw	a5,20(s1)
 614              		.loc 2 62 17
 615 02e8 03A90401 		lw	s2,16(s1)
 616              		.loc 2 62 5
 617 02ec 63CE2703 		blt	a5,s2,.L21
  63:src/buffer_CPP_API.cpp ****         ret = tail - head;
 618              		.loc 2 63 9 is_stmt 1
 619              		.loc 2 63 13 is_stmt 0
 620 02f0 3B892741 		subw	s2,a5,s2
 621              	.LVL62:
 622              	.L22:
  64:src/buffer_CPP_API.cpp ****     } else {
  65:src/buffer_CPP_API.cpp ****         ret = cap - head + tail;
  66:src/buffer_CPP_API.cpp ****     }
  67:src/buffer_CPP_API.cpp **** 
  68:src/buffer_CPP_API.cpp ****     mutexTail->signal();
 623              		.loc 2 68 5 is_stmt 1
 624              		.loc 2 68 22 is_stmt 0
 625 02f4 03B50403 		ld	a0,48(s1)
 626 02f8 97000000 		call	_ZN9Semaphore6signalEv@plt
 626      E7800000 
 627              	.LVL63:
  69:src/buffer_CPP_API.cpp ****     mutexHead->signal();
 628              		.loc 2 69 5 is_stmt 1
 629              		.loc 2 69 22 is_stmt 0
 630 0300 03B58402 		ld	a0,40(s1)
 631 0304 97000000 		call	_ZN9Semaphore6signalEv@plt
 631      E7800000 
 632              	.LVL64:
  70:src/buffer_CPP_API.cpp **** 
  71:src/buffer_CPP_API.cpp ****     return ret;
 633              		.loc 2 71 5 is_stmt 1
  72:src/buffer_CPP_API.cpp **** }
GAS LISTING /tmp/ccYs9ZNF.s 			page 15


 634              		.loc 2 72 1 is_stmt 0
 635 030c 13050900 		mv	a0,s2
 636 0310 83308101 		ld	ra,24(sp)
 637              		.cfi_remember_state
 638              		.cfi_restore 1
 639 0314 03340101 		ld	s0,16(sp)
 640              		.cfi_restore 8
 641              		.cfi_def_cfa 2, 32
 642 0318 83348100 		ld	s1,8(sp)
 643              		.cfi_restore 9
 644              	.LVL65:
 645 031c 03390100 		ld	s2,0(sp)
 646              		.cfi_restore 18
 647              	.LVL66:
 648 0320 13010102 		addi	sp,sp,32
 649              		.cfi_def_cfa_offset 0
 650 0324 67800000 		jr	ra
 651              	.LVL67:
 652              	.L21:
 653              		.cfi_restore_state
  65:src/buffer_CPP_API.cpp ****     }
 654              		.loc 2 65 9 is_stmt 1
  65:src/buffer_CPP_API.cpp ****     }
 655              		.loc 2 65 15 is_stmt 0
 656 0328 03A70400 		lw	a4,0(s1)
  65:src/buffer_CPP_API.cpp ****     }
 657              		.loc 2 65 19
 658 032c 3B092741 		subw	s2,a4,s2
  65:src/buffer_CPP_API.cpp ****     }
 659              		.loc 2 65 13
 660 0330 3B09F900 		addw	s2,s2,a5
 661 0334 6FF01FFC 		j	.L22
 662              		.cfi_endproc
 663              	.LFE65:
 665              		.section	.rodata.str1.8,"aMS",@progbits,1
 666              		.align	3
 667              	.LC0:
 668 0000 42756666 		.string	"Buffer deleted!\n"
 668      65722064 
 668      656C6574 
 668      6564210A 
 668      00
 669              		.text
 670              		.align	2
 671              		.globl	_ZN9BufferCPPD2Ev
 673              	_ZN9BufferCPPD2Ev:
 674              	.LFB61:
  11:src/buffer_CPP_API.cpp ****     Console::putc('\n');
 675              		.loc 2 11 1 is_stmt 1
 676              		.cfi_startproc
 677              		.cfi_personality 0x9b,DW.ref.__gxx_personality_v0
 678              		.cfi_lsda 0x1b,.LLSDA61
 679              	.LVL68:
 680 0338 130101FE 		addi	sp,sp,-32
 681              		.cfi_def_cfa_offset 32
 682 033c 233C1100 		sd	ra,24(sp)
 683 0340 23388100 		sd	s0,16(sp)
GAS LISTING /tmp/ccYs9ZNF.s 			page 16


 684 0344 23349100 		sd	s1,8(sp)
 685              		.cfi_offset 1, -8
 686              		.cfi_offset 8, -16
 687              		.cfi_offset 9, -24
 688 0348 13040102 		addi	s0,sp,32
 689              		.cfi_def_cfa 8, 0
 690 034c 93040500 		mv	s1,a0
 691              	.LBB35:
  12:src/buffer_CPP_API.cpp ****     printString("Buffer deleted!\n");
 692              		.loc 2 12 5
  12:src/buffer_CPP_API.cpp ****     printString("Buffer deleted!\n");
 693              		.loc 2 12 18 is_stmt 0
 694 0350 1305A000 		li	a0,10
 695              	.LVL69:
 696 0354 97000000 		call	_ZN7Console4putcEc@plt
 696      E7800000 
 697              	.LVL70:
  13:src/buffer_CPP_API.cpp ****     while (getCnt()) {
 698              		.loc 2 13 5 is_stmt 1
  13:src/buffer_CPP_API.cpp ****     while (getCnt()) {
 699              		.loc 2 13 16 is_stmt 0
 700 035c 17050000 		lla	a0,.LC0
 700      13050500 
 701 0364 97000000 		call	_Z11printStringPKc@plt
 701      E7800000 
 702              	.LVL71:
 703              	.L26:
  14:src/buffer_CPP_API.cpp ****         char ch = buffer[head];
 704              		.loc 2 14 5 is_stmt 1
  14:src/buffer_CPP_API.cpp ****         char ch = buffer[head];
 705              		.loc 2 14 19
  14:src/buffer_CPP_API.cpp ****         char ch = buffer[head];
 706              		.loc 2 14 18 is_stmt 0
 707 036c 13850400 		mv	a0,s1
 708 0370 97000000 		call	_ZN9BufferCPP6getCntEv
 708      E7800000 
 709              	.LVL72:
  14:src/buffer_CPP_API.cpp ****         char ch = buffer[head];
 710              		.loc 2 14 19
 711 0378 630C0502 		beqz	a0,.L25
 712              	.LBB36:
  15:src/buffer_CPP_API.cpp ****         Console::putc(ch);
 713              		.loc 2 15 9 is_stmt 1
  15:src/buffer_CPP_API.cpp ****         Console::putc(ch);
 714              		.loc 2 15 19 is_stmt 0
 715 037c 83B78400 		ld	a5,8(s1)
  15:src/buffer_CPP_API.cpp ****         Console::putc(ch);
 716              		.loc 2 15 26
 717 0380 03A70401 		lw	a4,16(s1)
  15:src/buffer_CPP_API.cpp ****         Console::putc(ch);
 718              		.loc 2 15 30
 719 0384 13172700 		slli	a4,a4,2
 720 0388 B387E700 		add	a5,a5,a4
 721              	.LVL73:
  16:src/buffer_CPP_API.cpp ****         head = (head + 1) % cap;
 722              		.loc 2 16 9 is_stmt 1
  16:src/buffer_CPP_API.cpp ****         head = (head + 1) % cap;
GAS LISTING /tmp/ccYs9ZNF.s 			page 17


 723              		.loc 2 16 22 is_stmt 0
 724 038c 03C50700 		lbu	a0,0(a5)
 725 0390 97000000 		call	_ZN7Console4putcEc@plt
 725      E7800000 
 726              	.LVL74:
  17:src/buffer_CPP_API.cpp ****     }
 727              		.loc 2 17 9 is_stmt 1
  17:src/buffer_CPP_API.cpp ****     }
 728              		.loc 2 17 17 is_stmt 0
 729 0398 83A70401 		lw	a5,16(s1)
  17:src/buffer_CPP_API.cpp ****     }
 730              		.loc 2 17 22
 731 039c 9B871700 		addiw	a5,a5,1
  17:src/buffer_CPP_API.cpp ****     }
 732              		.loc 2 17 29
 733 03a0 03A70400 		lw	a4,0(s1)
  17:src/buffer_CPP_API.cpp ****     }
 734              		.loc 2 17 27
 735 03a4 BBE7E702 		remw	a5,a5,a4
  17:src/buffer_CPP_API.cpp ****     }
 736              		.loc 2 17 14
 737 03a8 23A8F400 		sw	a5,16(s1)
 738              	.LBE36:
  14:src/buffer_CPP_API.cpp ****         char ch = buffer[head];
 739              		.loc 2 14 5
 740 03ac 6FF01FFC 		j	.L26
 741              	.L25:
  19:src/buffer_CPP_API.cpp ****     Console::putc('\n');
 742              		.loc 2 19 5 is_stmt 1
  19:src/buffer_CPP_API.cpp ****     Console::putc('\n');
 743              		.loc 2 19 18 is_stmt 0
 744 03b0 13051002 		li	a0,33
 745 03b4 97000000 		call	_ZN7Console4putcEc@plt
 745      E7800000 
 746              	.LVL75:
  20:src/buffer_CPP_API.cpp **** 
 747              		.loc 2 20 5 is_stmt 1
  20:src/buffer_CPP_API.cpp **** 
 748              		.loc 2 20 18 is_stmt 0
 749 03bc 1305A000 		li	a0,10
 750 03c0 97000000 		call	_ZN7Console4putcEc@plt
 750      E7800000 
 751              	.LVL76:
  22:src/buffer_CPP_API.cpp ****     delete itemAvailable;
 752              		.loc 2 22 5 is_stmt 1
  22:src/buffer_CPP_API.cpp ****     delete itemAvailable;
 753              		.loc 2 22 13 is_stmt 0
 754 03c8 03B58400 		ld	a0,8(s1)
 755 03cc 97000000 		call	_Z8mem_freePv@plt
 755      E7800000 
 756              	.LVL77:
  23:src/buffer_CPP_API.cpp ****     delete spaceAvailable;
 757              		.loc 2 23 5 is_stmt 1
  23:src/buffer_CPP_API.cpp ****     delete spaceAvailable;
 758              		.loc 2 23 12 is_stmt 0
 759 03d4 03B50402 		ld	a0,32(s1)
  23:src/buffer_CPP_API.cpp ****     delete spaceAvailable;
GAS LISTING /tmp/ccYs9ZNF.s 			page 18


 760              		.loc 2 23 25
 761 03d8 63080500 		beqz	a0,.L27
  23:src/buffer_CPP_API.cpp ****     delete spaceAvailable;
 762              		.loc 2 23 12 discriminator 1
 763 03dc 83370500 		ld	a5,0(a0)
 764 03e0 83B78700 		ld	a5,8(a5)
 765 03e4 E7800700 		jalr	a5
 766              	.LVL78:
 767              	.L27:
  24:src/buffer_CPP_API.cpp ****     delete mutexTail;
 768              		.loc 2 24 5 is_stmt 1
  24:src/buffer_CPP_API.cpp ****     delete mutexTail;
 769              		.loc 2 24 12 is_stmt 0
 770 03e8 03B58401 		ld	a0,24(s1)
  24:src/buffer_CPP_API.cpp ****     delete mutexTail;
 771              		.loc 2 24 26
 772 03ec 63080500 		beqz	a0,.L28
  24:src/buffer_CPP_API.cpp ****     delete mutexTail;
 773              		.loc 2 24 12 discriminator 1
 774 03f0 83370500 		ld	a5,0(a0)
 775 03f4 83B78700 		ld	a5,8(a5)
 776 03f8 E7800700 		jalr	a5
 777              	.LVL79:
 778              	.L28:
  25:src/buffer_CPP_API.cpp ****     delete mutexHead;
 779              		.loc 2 25 5 is_stmt 1
  25:src/buffer_CPP_API.cpp ****     delete mutexHead;
 780              		.loc 2 25 12 is_stmt 0
 781 03fc 03B50403 		ld	a0,48(s1)
  25:src/buffer_CPP_API.cpp ****     delete mutexHead;
 782              		.loc 2 25 21
 783 0400 63080500 		beqz	a0,.L29
  25:src/buffer_CPP_API.cpp ****     delete mutexHead;
 784              		.loc 2 25 12 discriminator 1
 785 0404 83370500 		ld	a5,0(a0)
 786 0408 83B78700 		ld	a5,8(a5)
 787 040c E7800700 		jalr	a5
 788              	.LVL80:
 789              	.L29:
  26:src/buffer_CPP_API.cpp **** 
 790              		.loc 2 26 5 is_stmt 1
  26:src/buffer_CPP_API.cpp **** 
 791              		.loc 2 26 12 is_stmt 0
 792 0410 03B58402 		ld	a0,40(s1)
  26:src/buffer_CPP_API.cpp **** 
 793              		.loc 2 26 21
 794 0414 63080500 		beqz	a0,.L24
  26:src/buffer_CPP_API.cpp **** 
 795              		.loc 2 26 12 discriminator 1
 796 0418 83370500 		ld	a5,0(a0)
 797 041c 83B78700 		ld	a5,8(a5)
 798 0420 E7800700 		jalr	a5
 799              	.LVL81:
 800              	.L24:
 801              	.LBE35:
  28:src/buffer_CPP_API.cpp **** 
 802              		.loc 2 28 1
GAS LISTING /tmp/ccYs9ZNF.s 			page 19


 803 0424 83308101 		ld	ra,24(sp)
 804              		.cfi_restore 1
 805 0428 03340101 		ld	s0,16(sp)
 806              		.cfi_restore 8
 807              		.cfi_def_cfa 2, 32
 808 042c 83348100 		ld	s1,8(sp)
 809              		.cfi_restore 9
 810              	.LVL82:
 811 0430 13010102 		addi	sp,sp,32
 812              		.cfi_def_cfa_offset 0
 813 0434 67800000 		jr	ra
 814              		.cfi_endproc
 815              	.LFE61:
 816              		.section	.gcc_except_table
 817              	.LLSDA61:
 818 00a1 FF       		.byte	0xff
 819 00a2 FF       		.byte	0xff
 820 00a3 03       		.byte	0x3
 821 00a4 00       		.byte	0
 822              		.text
 824              		.globl	_ZN9BufferCPPD1Ev
 825              		.set	_ZN9BufferCPPD1Ev,_ZN9BufferCPPD2Ev
 826              		.weak	_ZTV9Semaphore
 827              		.section	.data.rel.ro.local._ZTV9Semaphore,"awG",@progbits,_ZTV9Semaphore,comdat
 828              		.align	3
 831              	_ZTV9Semaphore:
 832 0000 00000000 		.dword	0
 832      00000000 
 833 0008 00000000 		.dword	0
 833      00000000 
 834 0010 00000000 		.dword	_ZN9SemaphoreD1Ev
 834      00000000 
 835 0018 00000000 		.dword	_ZN9SemaphoreD0Ev
 835      00000000 
 836              		.text
 837              	.Letext0:
 838              		.file 3 "src/../h/../h/../lib/hw.h"
 839              		.file 4 "src/../h/../h/syscall_c.hpp"
 840              		.file 5 "src/../h/buffer_CPP_API.hpp"
 841              		.file 6 "src/../h/../h/printing.hpp"
 3304              		.align	3
 3307              	DW.ref.__gxx_personality_v0:
 3308 0000 00000000 		.dword	__gxx_personality_v0
 3308      00000000 
 3309              		.ident	"GCC: (Ubuntu 9.4.0-1ubuntu1~20.04) 9.4.0"
 3310              		.section	.note.GNU-stack,"",@progbits
GAS LISTING /tmp/ccYs9ZNF.s 			page 20


DEFINED SYMBOLS
                            *ABS*:0000000000000000 buffer_CPP_API.cpp
     /tmp/ccYs9ZNF.s:10     .text._ZN9SemaphoreD2Ev:0000000000000000 _ZN9SemaphoreD2Ev
     /tmp/ccYs9ZNF.s:14     .text._ZN9SemaphoreD2Ev:0000000000000000 .L0 
     /tmp/ccYs9ZNF.s:3307   .data.rel.local.DW.ref.__gxx_personality_v0:0000000000000000 DW.ref.__gxx_personality_v0
     /tmp/ccYs9ZNF.s:18     .text._ZN9SemaphoreD2Ev:0000000000000000 .L0 
     /tmp/ccYs9ZNF.s:19     .text._ZN9SemaphoreD2Ev:0000000000000004 .L0 
     /tmp/ccYs9ZNF.s:22     .text._ZN9SemaphoreD2Ev:000000000000000c .L0 
     /tmp/ccYs9ZNF.s:23     .text._ZN9SemaphoreD2Ev:000000000000000c .L0 
     /tmp/ccYs9ZNF.s:25     .text._ZN9SemaphoreD2Ev:0000000000000010 .L0 
     /tmp/ccYs9ZNF.s:831    .data.rel.ro.local._ZTV9Semaphore:0000000000000000 _ZTV9Semaphore
     /tmp/ccYs9ZNF.s:28     .text._ZN9SemaphoreD2Ev:0000000000000010 .L0 
     /tmp/ccYs9ZNF.s:31     .text._ZN9SemaphoreD2Ev:000000000000001c .L0 
     /tmp/ccYs9ZNF.s:32     .text._ZN9SemaphoreD2Ev:000000000000001c .L0 
     /tmp/ccYs9ZNF.s:38     .text._ZN9SemaphoreD2Ev:0000000000000028 .L0 
     /tmp/ccYs9ZNF.s:39     .text._ZN9SemaphoreD2Ev:000000000000002c .L0 
     /tmp/ccYs9ZNF.s:41     .text._ZN9SemaphoreD2Ev:0000000000000030 .L0 
     /tmp/ccYs9ZNF.s:42     .text._ZN9SemaphoreD2Ev:0000000000000030 .L0 
     /tmp/ccYs9ZNF.s:44     .text._ZN9SemaphoreD2Ev:0000000000000034 .L0 
     /tmp/ccYs9ZNF.s:46     .text._ZN9SemaphoreD2Ev:0000000000000038 .L0 
     /tmp/ccYs9ZNF.s:10     .text._ZN9SemaphoreD2Ev:0000000000000000 _ZN9SemaphoreD1Ev
     /tmp/ccYs9ZNF.s:63     .text._ZN9SemaphoreD0Ev:0000000000000000 _ZN9SemaphoreD0Ev
     /tmp/ccYs9ZNF.s:66     .text._ZN9SemaphoreD0Ev:0000000000000000 .L0 
     /tmp/ccYs9ZNF.s:70     .text._ZN9SemaphoreD0Ev:0000000000000000 .L0 
     /tmp/ccYs9ZNF.s:71     .text._ZN9SemaphoreD0Ev:0000000000000004 .L0 
     /tmp/ccYs9ZNF.s:75     .text._ZN9SemaphoreD0Ev:0000000000000010 .L0 
     /tmp/ccYs9ZNF.s:76     .text._ZN9SemaphoreD0Ev:0000000000000010 .L0 
     /tmp/ccYs9ZNF.s:77     .text._ZN9SemaphoreD0Ev:0000000000000010 .L0 
     /tmp/ccYs9ZNF.s:79     .text._ZN9SemaphoreD0Ev:0000000000000014 .L0 
     /tmp/ccYs9ZNF.s:85     .text._ZN9SemaphoreD0Ev:0000000000000018 .L0 
     /tmp/ccYs9ZNF.s:88     .text._ZN9SemaphoreD0Ev:0000000000000024 .L0 
     /tmp/ccYs9ZNF.s:89     .text._ZN9SemaphoreD0Ev:0000000000000024 .L0 
     /tmp/ccYs9ZNF.s:96     .text._ZN9SemaphoreD0Ev:0000000000000030 .L0 
     /tmp/ccYs9ZNF.s:102    .text._ZN9SemaphoreD0Ev:0000000000000040 .L0 
     /tmp/ccYs9ZNF.s:104    .text._ZN9SemaphoreD0Ev:0000000000000044 .L0 
     /tmp/ccYs9ZNF.s:105    .text._ZN9SemaphoreD0Ev:0000000000000044 .L0 
     /tmp/ccYs9ZNF.s:107    .text._ZN9SemaphoreD0Ev:0000000000000048 .L0 
     /tmp/ccYs9ZNF.s:110    .text._ZN9SemaphoreD0Ev:000000000000004c .L0 
     /tmp/ccYs9ZNF.s:112    .text._ZN9SemaphoreD0Ev:0000000000000050 .L0 
     /tmp/ccYs9ZNF.s:130    .text:0000000000000000 _ZN9BufferCPPC2Ei
     /tmp/ccYs9ZNF.s:134    .text:0000000000000000 .L0 
     /tmp/ccYs9ZNF.s:138    .text:0000000000000000 .L0 
     /tmp/ccYs9ZNF.s:139    .text:0000000000000004 .L0 
     /tmp/ccYs9ZNF.s:145    .text:0000000000000018 .L0 
     /tmp/ccYs9ZNF.s:146    .text:0000000000000018 .L0 
     /tmp/ccYs9ZNF.s:147    .text:0000000000000018 .L0 
     /tmp/ccYs9ZNF.s:148    .text:0000000000000018 .L0 
     /tmp/ccYs9ZNF.s:149    .text:0000000000000018 .L0 
     /tmp/ccYs9ZNF.s:151    .text:000000000000001c .L0 
     /tmp/ccYs9ZNF.s:156    .text:0000000000000024 .L0 
     /tmp/ccYs9ZNF.s:160    .text:000000000000002c .L0 
     /tmp/ccYs9ZNF.s:164    .text:0000000000000038 .L0 
     /tmp/ccYs9ZNF.s:165    .text:0000000000000038 .L0 
     /tmp/ccYs9ZNF.s:170    .text:0000000000000044 .L0 
     /tmp/ccYs9ZNF.s:172    .text:0000000000000048 .L0 
     /tmp/ccYs9ZNF.s:173    .text:0000000000000048 .L0 
     /tmp/ccYs9ZNF.s:183    .text:0000000000000058 .L0 
GAS LISTING /tmp/ccYs9ZNF.s 			page 21


     /tmp/ccYs9ZNF.s:186    .text:0000000000000064 .L0 
     /tmp/ccYs9ZNF.s:187    .text:0000000000000064 .L0 
     /tmp/ccYs9ZNF.s:198    .text:0000000000000074 .L0 
     /tmp/ccYs9ZNF.s:200    .text:0000000000000078 .L0 
     /tmp/ccYs9ZNF.s:201    .text:0000000000000078 .L0 
     /tmp/ccYs9ZNF.s:212    .text:0000000000000088 .L0 
     /tmp/ccYs9ZNF.s:215    .text:0000000000000094 .L0 
     /tmp/ccYs9ZNF.s:216    .text:0000000000000094 .L0 
     /tmp/ccYs9ZNF.s:227    .text:00000000000000a4 .L0 
     /tmp/ccYs9ZNF.s:229    .text:00000000000000a8 .L0 
     /tmp/ccYs9ZNF.s:230    .text:00000000000000a8 .L0 
     /tmp/ccYs9ZNF.s:241    .text:00000000000000b8 .L0 
     /tmp/ccYs9ZNF.s:244    .text:00000000000000c4 .L0 
     /tmp/ccYs9ZNF.s:245    .text:00000000000000c4 .L0 
     /tmp/ccYs9ZNF.s:256    .text:00000000000000d4 .L0 
     /tmp/ccYs9ZNF.s:258    .text:00000000000000d8 .L0 
     /tmp/ccYs9ZNF.s:259    .text:00000000000000d8 .L0 
     /tmp/ccYs9ZNF.s:270    .text:00000000000000e8 .L0 
     /tmp/ccYs9ZNF.s:273    .text:00000000000000f4 .L0 
     /tmp/ccYs9ZNF.s:274    .text:00000000000000f4 .L0 
     /tmp/ccYs9ZNF.s:285    .text:0000000000000104 .L0 
     /tmp/ccYs9ZNF.s:288    .text:0000000000000108 .L0 
     /tmp/ccYs9ZNF.s:289    .text:000000000000010c .L0 
     /tmp/ccYs9ZNF.s:290    .text:000000000000010c .L0 
     /tmp/ccYs9ZNF.s:292    .text:0000000000000110 .L0 
     /tmp/ccYs9ZNF.s:293    .text:0000000000000110 .L0 
     /tmp/ccYs9ZNF.s:295    .text:0000000000000114 .L0 
     /tmp/ccYs9ZNF.s:298    .text:0000000000000118 .L0 
     /tmp/ccYs9ZNF.s:300    .text:000000000000011c .L0 
     /tmp/ccYs9ZNF.s:302    .text:0000000000000120 .L0 
     /tmp/ccYs9ZNF.s:306    .text:0000000000000124 .L0 
     /tmp/ccYs9ZNF.s:311    .text:0000000000000128 .L0 
     /tmp/ccYs9ZNF.s:323    .text:0000000000000144 .L0 
     /tmp/ccYs9ZNF.s:335    .text:0000000000000160 .L0 
     /tmp/ccYs9ZNF.s:347    .text:000000000000017c .L0 
     /tmp/ccYs9ZNF.s:356    .text:0000000000000194 .L0 
     /tmp/ccYs9ZNF.s:130    .text:0000000000000000 _ZN9BufferCPPC1Ei
     /tmp/ccYs9ZNF.s:419    .text:0000000000000194 _ZN9BufferCPP3putEi
     /tmp/ccYs9ZNF.s:422    .text:0000000000000194 .L0 
     /tmp/ccYs9ZNF.s:424    .text:0000000000000194 .L0 
     /tmp/ccYs9ZNF.s:425    .text:0000000000000198 .L0 
     /tmp/ccYs9ZNF.s:430    .text:00000000000001a8 .L0 
     /tmp/ccYs9ZNF.s:431    .text:00000000000001a8 .L0 
     /tmp/ccYs9ZNF.s:432    .text:00000000000001a8 .L0 
     /tmp/ccYs9ZNF.s:433    .text:00000000000001a8 .L0 
     /tmp/ccYs9ZNF.s:435    .text:00000000000001ac .L0 
     /tmp/ccYs9ZNF.s:439    .text:00000000000001b4 .L0 
     /tmp/ccYs9ZNF.s:440    .text:00000000000001b4 .L0 
     /tmp/ccYs9ZNF.s:445    .text:00000000000001c0 .L0 
     /tmp/ccYs9ZNF.s:446    .text:00000000000001c0 .L0 
     /tmp/ccYs9ZNF.s:450    .text:00000000000001cc .L0 
     /tmp/ccYs9ZNF.s:452    .text:00000000000001d0 .L0 
     /tmp/ccYs9ZNF.s:454    .text:00000000000001d4 .L0 
     /tmp/ccYs9ZNF.s:457    .text:00000000000001dc .L0 
     /tmp/ccYs9ZNF.s:459    .text:00000000000001e0 .L0 
     /tmp/ccYs9ZNF.s:460    .text:00000000000001e0 .L0 
     /tmp/ccYs9ZNF.s:462    .text:00000000000001e4 .L0 
GAS LISTING /tmp/ccYs9ZNF.s 			page 22


     /tmp/ccYs9ZNF.s:464    .text:00000000000001e8 .L0 
     /tmp/ccYs9ZNF.s:466    .text:00000000000001ec .L0 
     /tmp/ccYs9ZNF.s:468    .text:00000000000001f0 .L0 
     /tmp/ccYs9ZNF.s:470    .text:00000000000001f4 .L0 
     /tmp/ccYs9ZNF.s:471    .text:00000000000001f4 .L0 
     /tmp/ccYs9ZNF.s:475    .text:0000000000000200 .L0 
     /tmp/ccYs9ZNF.s:476    .text:0000000000000200 .L0 
     /tmp/ccYs9ZNF.s:480    .text:000000000000020c .L0 
     /tmp/ccYs9ZNF.s:481    .text:0000000000000210 .L0 
     /tmp/ccYs9ZNF.s:483    .text:0000000000000214 .L0 
     /tmp/ccYs9ZNF.s:484    .text:0000000000000214 .L0 
     /tmp/ccYs9ZNF.s:486    .text:0000000000000218 .L0 
     /tmp/ccYs9ZNF.s:489    .text:000000000000021c .L0 
     /tmp/ccYs9ZNF.s:491    .text:0000000000000220 .L0 
     /tmp/ccYs9ZNF.s:493    .text:0000000000000224 .L0 
     /tmp/ccYs9ZNF.s:499    .text:0000000000000224 _ZN9BufferCPP3getEv
     /tmp/ccYs9ZNF.s:502    .text:0000000000000224 .L0 
     /tmp/ccYs9ZNF.s:504    .text:0000000000000224 .L0 
     /tmp/ccYs9ZNF.s:505    .text:0000000000000228 .L0 
     /tmp/ccYs9ZNF.s:510    .text:0000000000000238 .L0 
     /tmp/ccYs9ZNF.s:511    .text:0000000000000238 .L0 
     /tmp/ccYs9ZNF.s:512    .text:0000000000000238 .L0 
     /tmp/ccYs9ZNF.s:513    .text:0000000000000238 .L0 
     /tmp/ccYs9ZNF.s:515    .text:000000000000023c .L0 
     /tmp/ccYs9ZNF.s:518    .text:0000000000000240 .L0 
     /tmp/ccYs9ZNF.s:519    .text:0000000000000240 .L0 
     /tmp/ccYs9ZNF.s:524    .text:000000000000024c .L0 
     /tmp/ccYs9ZNF.s:525    .text:000000000000024c .L0 
     /tmp/ccYs9ZNF.s:529    .text:0000000000000258 .L0 
     /tmp/ccYs9ZNF.s:530    .text:0000000000000258 .L0 
     /tmp/ccYs9ZNF.s:532    .text:000000000000025c .L0 
     /tmp/ccYs9ZNF.s:534    .text:0000000000000260 .L0 
     /tmp/ccYs9ZNF.s:537    .text:0000000000000268 .L0 
     /tmp/ccYs9ZNF.s:540    .text:000000000000026c .L0 
     /tmp/ccYs9ZNF.s:541    .text:000000000000026c .L0 
     /tmp/ccYs9ZNF.s:543    .text:0000000000000270 .L0 
     /tmp/ccYs9ZNF.s:545    .text:0000000000000274 .L0 
     /tmp/ccYs9ZNF.s:547    .text:0000000000000278 .L0 
     /tmp/ccYs9ZNF.s:549    .text:000000000000027c .L0 
     /tmp/ccYs9ZNF.s:550    .text:000000000000027c .L0 
     /tmp/ccYs9ZNF.s:554    .text:0000000000000288 .L0 
     /tmp/ccYs9ZNF.s:555    .text:0000000000000288 .L0 
     /tmp/ccYs9ZNF.s:559    .text:0000000000000294 .L0 
     /tmp/ccYs9ZNF.s:560    .text:0000000000000294 .L0 
     /tmp/ccYs9ZNF.s:562    .text:000000000000029c .L0 
     /tmp/ccYs9ZNF.s:564    .text:00000000000002a0 .L0 
     /tmp/ccYs9ZNF.s:565    .text:00000000000002a0 .L0 
     /tmp/ccYs9ZNF.s:567    .text:00000000000002a4 .L0 
     /tmp/ccYs9ZNF.s:570    .text:00000000000002a8 .L0 
     /tmp/ccYs9ZNF.s:573    .text:00000000000002ac .L0 
     /tmp/ccYs9ZNF.s:575    .text:00000000000002b0 .L0 
     /tmp/ccYs9ZNF.s:581    .text:00000000000002b0 _ZN9BufferCPP6getCntEv
     /tmp/ccYs9ZNF.s:584    .text:00000000000002b0 .L0 
     /tmp/ccYs9ZNF.s:586    .text:00000000000002b0 .L0 
     /tmp/ccYs9ZNF.s:587    .text:00000000000002b4 .L0 
     /tmp/ccYs9ZNF.s:592    .text:00000000000002c4 .L0 
     /tmp/ccYs9ZNF.s:593    .text:00000000000002c4 .L0 
GAS LISTING /tmp/ccYs9ZNF.s 			page 23


     /tmp/ccYs9ZNF.s:594    .text:00000000000002c4 .L0 
     /tmp/ccYs9ZNF.s:595    .text:00000000000002c4 .L0 
     /tmp/ccYs9ZNF.s:597    .text:00000000000002c8 .L0 
     /tmp/ccYs9ZNF.s:600    .text:00000000000002cc .L0 
     /tmp/ccYs9ZNF.s:601    .text:00000000000002cc .L0 
     /tmp/ccYs9ZNF.s:602    .text:00000000000002cc .L0 
     /tmp/ccYs9ZNF.s:607    .text:00000000000002d8 .L0 
     /tmp/ccYs9ZNF.s:608    .text:00000000000002d8 .L0 
     /tmp/ccYs9ZNF.s:612    .text:00000000000002e4 .L0 
     /tmp/ccYs9ZNF.s:613    .text:00000000000002e4 .L0 
     /tmp/ccYs9ZNF.s:615    .text:00000000000002e8 .L0 
     /tmp/ccYs9ZNF.s:617    .text:00000000000002ec .L0 
     /tmp/ccYs9ZNF.s:619    .text:00000000000002f0 .L0 
     /tmp/ccYs9ZNF.s:620    .text:00000000000002f0 .L0 
     /tmp/ccYs9ZNF.s:624    .text:00000000000002f4 .L0 
     /tmp/ccYs9ZNF.s:625    .text:00000000000002f4 .L0 
     /tmp/ccYs9ZNF.s:629    .text:0000000000000300 .L0 
     /tmp/ccYs9ZNF.s:630    .text:0000000000000300 .L0 
     /tmp/ccYs9ZNF.s:634    .text:000000000000030c .L0 
     /tmp/ccYs9ZNF.s:635    .text:000000000000030c .L0 
     /tmp/ccYs9ZNF.s:637    .text:0000000000000314 .L0 
     /tmp/ccYs9ZNF.s:638    .text:0000000000000314 .L0 
     /tmp/ccYs9ZNF.s:640    .text:0000000000000318 .L0 
     /tmp/ccYs9ZNF.s:641    .text:0000000000000318 .L0 
     /tmp/ccYs9ZNF.s:643    .text:000000000000031c .L0 
     /tmp/ccYs9ZNF.s:646    .text:0000000000000320 .L0 
     /tmp/ccYs9ZNF.s:649    .text:0000000000000324 .L0 
     /tmp/ccYs9ZNF.s:653    .text:0000000000000328 .L0 
     /tmp/ccYs9ZNF.s:655    .text:0000000000000328 .L0 
     /tmp/ccYs9ZNF.s:656    .text:0000000000000328 .L0 
     /tmp/ccYs9ZNF.s:658    .text:000000000000032c .L0 
     /tmp/ccYs9ZNF.s:660    .text:0000000000000330 .L0 
     /tmp/ccYs9ZNF.s:662    .text:0000000000000338 .L0 
     /tmp/ccYs9ZNF.s:673    .text:0000000000000338 _ZN9BufferCPPD2Ev
     /tmp/ccYs9ZNF.s:676    .text:0000000000000338 .L0 
     /tmp/ccYs9ZNF.s:680    .text:0000000000000338 .L0 
     /tmp/ccYs9ZNF.s:681    .text:000000000000033c .L0 
     /tmp/ccYs9ZNF.s:685    .text:0000000000000348 .L0 
     /tmp/ccYs9ZNF.s:686    .text:0000000000000348 .L0 
     /tmp/ccYs9ZNF.s:687    .text:0000000000000348 .L0 
     /tmp/ccYs9ZNF.s:689    .text:000000000000034c .L0 
     /tmp/ccYs9ZNF.s:693    .text:0000000000000350 .L0 
     /tmp/ccYs9ZNF.s:694    .text:0000000000000350 .L0 
     /tmp/ccYs9ZNF.s:699    .text:000000000000035c .L0 
     /tmp/ccYs9ZNF.s:700    .text:000000000000035c .L0 
     /tmp/ccYs9ZNF.s:705    .text:000000000000036c .L0 
     /tmp/ccYs9ZNF.s:706    .text:000000000000036c .L0 
     /tmp/ccYs9ZNF.s:707    .text:000000000000036c .L0 
     /tmp/ccYs9ZNF.s:711    .text:0000000000000378 .L0 
     /tmp/ccYs9ZNF.s:714    .text:000000000000037c .L0 
     /tmp/ccYs9ZNF.s:715    .text:000000000000037c .L0 
     /tmp/ccYs9ZNF.s:717    .text:0000000000000380 .L0 
     /tmp/ccYs9ZNF.s:719    .text:0000000000000384 .L0 
     /tmp/ccYs9ZNF.s:723    .text:000000000000038c .L0 
     /tmp/ccYs9ZNF.s:724    .text:000000000000038c .L0 
     /tmp/ccYs9ZNF.s:728    .text:0000000000000398 .L0 
     /tmp/ccYs9ZNF.s:729    .text:0000000000000398 .L0 
GAS LISTING /tmp/ccYs9ZNF.s 			page 24


     /tmp/ccYs9ZNF.s:731    .text:000000000000039c .L0 
     /tmp/ccYs9ZNF.s:733    .text:00000000000003a0 .L0 
     /tmp/ccYs9ZNF.s:735    .text:00000000000003a4 .L0 
     /tmp/ccYs9ZNF.s:737    .text:00000000000003a8 .L0 
     /tmp/ccYs9ZNF.s:740    .text:00000000000003ac .L0 
     /tmp/ccYs9ZNF.s:743    .text:00000000000003b0 .L0 
     /tmp/ccYs9ZNF.s:744    .text:00000000000003b0 .L0 
     /tmp/ccYs9ZNF.s:748    .text:00000000000003bc .L0 
     /tmp/ccYs9ZNF.s:749    .text:00000000000003bc .L0 
     /tmp/ccYs9ZNF.s:753    .text:00000000000003c8 .L0 
     /tmp/ccYs9ZNF.s:754    .text:00000000000003c8 .L0 
     /tmp/ccYs9ZNF.s:758    .text:00000000000003d4 .L0 
     /tmp/ccYs9ZNF.s:759    .text:00000000000003d4 .L0 
     /tmp/ccYs9ZNF.s:761    .text:00000000000003d8 .L0 
     /tmp/ccYs9ZNF.s:763    .text:00000000000003dc .L0 
     /tmp/ccYs9ZNF.s:769    .text:00000000000003e8 .L0 
     /tmp/ccYs9ZNF.s:770    .text:00000000000003e8 .L0 
     /tmp/ccYs9ZNF.s:772    .text:00000000000003ec .L0 
     /tmp/ccYs9ZNF.s:774    .text:00000000000003f0 .L0 
     /tmp/ccYs9ZNF.s:780    .text:00000000000003fc .L0 
     /tmp/ccYs9ZNF.s:781    .text:00000000000003fc .L0 
     /tmp/ccYs9ZNF.s:783    .text:0000000000000400 .L0 
     /tmp/ccYs9ZNF.s:785    .text:0000000000000404 .L0 
     /tmp/ccYs9ZNF.s:791    .text:0000000000000410 .L0 
     /tmp/ccYs9ZNF.s:792    .text:0000000000000410 .L0 
     /tmp/ccYs9ZNF.s:794    .text:0000000000000414 .L0 
     /tmp/ccYs9ZNF.s:796    .text:0000000000000418 .L0 
     /tmp/ccYs9ZNF.s:803    .text:0000000000000424 .L0 
     /tmp/ccYs9ZNF.s:804    .text:0000000000000428 .L0 
     /tmp/ccYs9ZNF.s:806    .text:000000000000042c .L0 
     /tmp/ccYs9ZNF.s:807    .text:000000000000042c .L0 
     /tmp/ccYs9ZNF.s:809    .text:0000000000000430 .L0 
     /tmp/ccYs9ZNF.s:812    .text:0000000000000434 .L0 
     /tmp/ccYs9ZNF.s:814    .text:0000000000000438 .L0 
     /tmp/ccYs9ZNF.s:673    .text:0000000000000338 _ZN9BufferCPPD1Ev
     /tmp/ccYs9ZNF.s:59     .text._ZN9SemaphoreD2Ev:0000000000000038 .L0 
     /tmp/ccYs9ZNF.s:126    .text._ZN9SemaphoreD0Ev:0000000000000050 .L0 
     /tmp/ccYs9ZNF.s:842    .text:0000000000000438 .L0 
     /tmp/ccYs9ZNF.s:183    .text:0000000000000058 .L0 
     /tmp/ccYs9ZNF.s:212    .text:0000000000000088 .L0 
     /tmp/ccYs9ZNF.s:241    .text:00000000000000b8 .L0 
     /tmp/ccYs9ZNF.s:270    .text:00000000000000e8 .L0 
     /tmp/ccYs9ZNF.s:667    .rodata.str1.8:0000000000000000 .LC0
     /tmp/ccYs9ZNF.s:700    .text:000000000000035c .L0 
     /tmp/ccYs9ZNF.s:652    .text:0000000000000328 .L21
     /tmp/ccYs9ZNF.s:622    .text:00000000000002f4 .L22
     /tmp/ccYs9ZNF.s:741    .text:00000000000003b0 .L25
     /tmp/ccYs9ZNF.s:703    .text:000000000000036c .L26
     /tmp/ccYs9ZNF.s:767    .text:00000000000003e8 .L27
     /tmp/ccYs9ZNF.s:778    .text:00000000000003fc .L28
     /tmp/ccYs9ZNF.s:789    .text:0000000000000410 .L29
     /tmp/ccYs9ZNF.s:800    .text:0000000000000424 .L24
     /tmp/ccYs9ZNF.s:28     .text._ZN9SemaphoreD2Ev:0000000000000010 .L0 
     /tmp/ccYs9ZNF.s:85     .text._ZN9SemaphoreD0Ev:0000000000000018 .L0 
     /tmp/ccYs9ZNF.s:97     .text._ZN9SemaphoreD0Ev:0000000000000034 .LEHB0
     /tmp/ccYs9ZNF.s:64     .text._ZN9SemaphoreD0Ev:0000000000000000 .LFB51
     /tmp/ccYs9ZNF.s:100    .text._ZN9SemaphoreD0Ev:000000000000003c .LEHE0
GAS LISTING /tmp/ccYs9ZNF.s 			page 25


     /tmp/ccYs9ZNF.s:166    .text:000000000000003c .LEHB1
     /tmp/ccYs9ZNF.s:131    .text:0000000000000000 .LFB58
     /tmp/ccYs9ZNF.s:176    .text:0000000000000054 .LEHE1
     /tmp/ccYs9ZNF.s:190    .text:000000000000006c .LEHB2
     /tmp/ccYs9ZNF.s:193    .text:0000000000000074 .LEHE2
     /tmp/ccYs9ZNF.s:305    .text:0000000000000124 .L10
     /tmp/ccYs9ZNF.s:202    .text:000000000000007c .LEHB3
     /tmp/ccYs9ZNF.s:205    .text:0000000000000084 .LEHE3
     /tmp/ccYs9ZNF.s:219    .text:000000000000009c .LEHB4
     /tmp/ccYs9ZNF.s:222    .text:00000000000000a4 .LEHE4
     /tmp/ccYs9ZNF.s:319    .text:0000000000000140 .L11
     /tmp/ccYs9ZNF.s:231    .text:00000000000000ac .LEHB5
     /tmp/ccYs9ZNF.s:234    .text:00000000000000b4 .LEHE5
     /tmp/ccYs9ZNF.s:248    .text:00000000000000cc .LEHB6
     /tmp/ccYs9ZNF.s:251    .text:00000000000000d4 .LEHE6
     /tmp/ccYs9ZNF.s:331    .text:000000000000015c .L12
     /tmp/ccYs9ZNF.s:260    .text:00000000000000dc .LEHB7
     /tmp/ccYs9ZNF.s:263    .text:00000000000000e4 .LEHE7
     /tmp/ccYs9ZNF.s:277    .text:00000000000000fc .LEHB8
     /tmp/ccYs9ZNF.s:280    .text:0000000000000104 .LEHE8
     /tmp/ccYs9ZNF.s:343    .text:0000000000000178 .L13
     /tmp/ccYs9ZNF.s:315    .text:0000000000000138 .LEHB9
     /tmp/ccYs9ZNF.s:318    .text:0000000000000140 .LEHE9
     /tmp/ccYs9ZNF.s:327    .text:0000000000000154 .LEHB10
     /tmp/ccYs9ZNF.s:330    .text:000000000000015c .LEHE10
     /tmp/ccYs9ZNF.s:339    .text:0000000000000170 .LEHB11
     /tmp/ccYs9ZNF.s:342    .text:0000000000000178 .LEHE11
     /tmp/ccYs9ZNF.s:351    .text:000000000000018c .LEHB12
     /tmp/ccYs9ZNF.s:354    .text:0000000000000194 .LEHE12
     /tmp/ccYs9ZNF.s:1926   .debug_abbrev:0000000000000000 .Ldebug_abbrev0
     /tmp/ccYs9ZNF.s:3275   .debug_str:00000000000003a5 .LASF64
     /tmp/ccYs9ZNF.s:3237   .debug_str:000000000000029b .LASF65
     /tmp/ccYs9ZNF.s:3279   .debug_str:0000000000000470 .LASF66
     /tmp/ccYs9ZNF.s:3127   .debug_ranges:0000000000000000 .Ldebug_ranges0
     /tmp/ccYs9ZNF.s:3137   .debug_line:0000000000000000 .Ldebug_line0
     /tmp/ccYs9ZNF.s:3195   .debug_str:000000000000019d .LASF0
     /tmp/ccYs9ZNF.s:3209   .debug_str:0000000000000203 .LASF1
     /tmp/ccYs9ZNF.s:3247   .debug_str:00000000000002f0 .LASF2
     /tmp/ccYs9ZNF.s:3251   .debug_str:0000000000000312 .LASF4
     /tmp/ccYs9ZNF.s:3203   .debug_str:00000000000001cc .LASF3
     /tmp/ccYs9ZNF.s:3145   .debug_str:0000000000000024 .LASF5
     /tmp/ccYs9ZNF.s:3229   .debug_str:0000000000000268 .LASF6
     /tmp/ccYs9ZNF.s:3207   .debug_str:00000000000001f0 .LASF7
     /tmp/ccYs9ZNF.s:3185   .debug_str:0000000000000149 .LASF8
     /tmp/ccYs9ZNF.s:3189   .debug_str:0000000000000171 .LASF9
     /tmp/ccYs9ZNF.s:3157   .debug_str:000000000000006e .LASF10
     /tmp/ccYs9ZNF.s:3179   .debug_str:0000000000000121 .LASF11
     /tmp/ccYs9ZNF.s:3165   .debug_str:00000000000000b7 .LASF12
     /tmp/ccYs9ZNF.s:3155   .debug_str:000000000000005e .LASF13
     /tmp/ccYs9ZNF.s:3263   .debug_str:000000000000035d .LASF14
     /tmp/ccYs9ZNF.s:3175   .debug_str:0000000000000105 .LASF15
     /tmp/ccYs9ZNF.s:3255   .debug_str:000000000000032b .LASF16
     /tmp/ccYs9ZNF.s:3289   .debug_str:00000000000004bf .LASF17
     /tmp/ccYs9ZNF.s:3261   .debug_str:0000000000000358 .LASF67
     /tmp/ccYs9ZNF.s:3213   .debug_str:0000000000000228 .LASF18
     /tmp/ccYs9ZNF.s:3215   .debug_str:000000000000022d .LASF20
     /tmp/ccYs9ZNF.s:3197   .debug_str:00000000000001aa .LASF68
GAS LISTING /tmp/ccYs9ZNF.s 			page 26


     /tmp/ccYs9ZNF.s:3169   .debug_str:00000000000000da .LASF69
     /tmp/ccYs9ZNF.s:3217   .debug_str:0000000000000235 .LASF34
     /tmp/ccYs9ZNF.s:3173   .debug_str:00000000000000f2 .LASF70
     /tmp/ccYs9ZNF.s:3269   .debug_str:0000000000000379 .LASF19
     /tmp/ccYs9ZNF.s:3281   .debug_str:0000000000000493 .LASF21
     /tmp/ccYs9ZNF.s:3277   .debug_str:0000000000000469 .LASF22
     /tmp/ccYs9ZNF.s:3257   .debug_str:0000000000000341 .LASF23
     /tmp/ccYs9ZNF.s:3225   .debug_str:000000000000025c .LASF24
     /tmp/ccYs9ZNF.s:3283   .debug_str:000000000000049d .LASF25
     /tmp/ccYs9ZNF.s:3219   .debug_str:000000000000023a .LASF26
     /tmp/ccYs9ZNF.s:3139   .debug_str:0000000000000000 .LASF27
     /tmp/ccYs9ZNF.s:3223   .debug_str:0000000000000252 .LASF28
     /tmp/ccYs9ZNF.s:3205   .debug_str:00000000000001de .LASF30
     /tmp/ccYs9ZNF.s:3231   .debug_str:000000000000027b .LASF29
     /tmp/ccYs9ZNF.s:3297   .debug_str:00000000000004f0 .LASF31
     /tmp/ccYs9ZNF.s:3199   .debug_str:00000000000001af .LASF71
     /tmp/ccYs9ZNF.s:3183   .debug_str:0000000000000135 .LASF72
     /tmp/ccYs9ZNF.s:3239   .debug_str:00000000000002b2 .LASF32
     /tmp/ccYs9ZNF.s:3243   .debug_str:00000000000002c7 .LASF33
     /tmp/ccYs9ZNF.s:3287   .debug_str:00000000000004b5 .LASF35
     /tmp/ccYs9ZNF.s:3273   .debug_str:0000000000000390 .LASF73
     /tmp/ccYs9ZNF.s:3295   .debug_str:00000000000004e0 .LASF74
     /tmp/ccYs9ZNF.s:3271   .debug_str:000000000000037e .LASF36
     /tmp/ccYs9ZNF.s:3233   .debug_str:0000000000000286 .LASF75
     /tmp/ccYs9ZNF.s:3253   .debug_str:0000000000000319 .LASF76
     /tmp/ccYs9ZNF.s:3171   .debug_str:00000000000000ed .LASF37
     /tmp/ccYs9ZNF.s:3161   .debug_str:000000000000008f .LASF38
     /tmp/ccYs9ZNF.s:3265   .debug_str:0000000000000369 .LASF39
     /tmp/ccYs9ZNF.s:3147   .debug_str:000000000000002b .LASF40
     /tmp/ccYs9ZNF.s:3201   .debug_str:00000000000001c3 .LASF41
     /tmp/ccYs9ZNF.s:3193   .debug_str:000000000000018d .LASF77
     /tmp/ccYs9ZNF.s:582    .text:00000000000002b0 .LFB65
     /tmp/ccYs9ZNF.s:663    .text:0000000000000338 .LFE65
     /tmp/ccYs9ZNF.s:3181   .debug_str:0000000000000130 .LASF42
     /tmp/ccYs9ZNF.s:2765   .debug_loc:0000000000000000 .LLST17
     /tmp/ccYs9ZNF.s:2787   .debug_loc:000000000000005f .LLST18
     /tmp/ccYs9ZNF.s:605    .text:00000000000002d8 .LVL60
     /tmp/ccYs9ZNF.s:610    .text:00000000000002e4 .LVL61
     /tmp/ccYs9ZNF.s:627    .text:0000000000000300 .LVL63
     /tmp/ccYs9ZNF.s:632    .text:000000000000030c .LVL64
     /tmp/ccYs9ZNF.s:500    .text:0000000000000224 .LFB64
     /tmp/ccYs9ZNF.s:576    .text:00000000000002b0 .LFE64
     /tmp/ccYs9ZNF.s:2794   .debug_loc:0000000000000082 .LLST15
     /tmp/ccYs9ZNF.s:2812   .debug_loc:00000000000000ce .LLST16
     /tmp/ccYs9ZNF.s:522    .text:000000000000024c .LVL51
     /tmp/ccYs9ZNF.s:527    .text:0000000000000258 .LVL52
     /tmp/ccYs9ZNF.s:552    .text:0000000000000288 .LVL54
     /tmp/ccYs9ZNF.s:557    .text:0000000000000294 .LVL55
     /tmp/ccYs9ZNF.s:420    .text:0000000000000194 .LFB63
     /tmp/ccYs9ZNF.s:494    .text:0000000000000224 .LFE63
     /tmp/ccYs9ZNF.s:2823   .debug_loc:0000000000000104 .LLST13
     /tmp/ccYs9ZNF.s:2841   .debug_loc:0000000000000150 .LLST14
     /tmp/ccYs9ZNF.s:443    .text:00000000000001c0 .LVL44
     /tmp/ccYs9ZNF.s:448    .text:00000000000001cc .LVL45
     /tmp/ccYs9ZNF.s:473    .text:0000000000000200 .LVL46
     /tmp/ccYs9ZNF.s:478    .text:000000000000020c .LVL47
     /tmp/ccYs9ZNF.s:3143   .debug_str:000000000000001a .LASF43
GAS LISTING /tmp/ccYs9ZNF.s 			page 27


     /tmp/ccYs9ZNF.s:3245   .debug_str:00000000000002de .LASF44
     /tmp/ccYs9ZNF.s:674    .text:0000000000000338 .LFB61
     /tmp/ccYs9ZNF.s:815    .text:0000000000000438 .LFE61
     /tmp/ccYs9ZNF.s:2855   .debug_loc:0000000000000189 .LLST19
     /tmp/ccYs9ZNF.s:726    .text:0000000000000398 .LVL74
     /tmp/ccYs9ZNF.s:712    .text:000000000000037c .LBB36
     /tmp/ccYs9ZNF.s:738    .text:00000000000003ac .LBE36
     /tmp/ccYs9ZNF.s:2873   .debug_loc:00000000000001d5 .LLST20
     /tmp/ccYs9ZNF.s:697    .text:000000000000035c .LVL70
     /tmp/ccYs9ZNF.s:702    .text:000000000000036c .LVL71
     /tmp/ccYs9ZNF.s:709    .text:0000000000000378 .LVL72
     /tmp/ccYs9ZNF.s:746    .text:00000000000003bc .LVL75
     /tmp/ccYs9ZNF.s:751    .text:00000000000003c8 .LVL76
     /tmp/ccYs9ZNF.s:756    .text:00000000000003d4 .LVL77
     /tmp/ccYs9ZNF.s:3153   .debug_str:0000000000000059 .LASF48
     /tmp/ccYs9ZNF.s:3259   .debug_str:0000000000000346 .LASF45
     /tmp/ccYs9ZNF.s:357    .text:0000000000000194 .LFE58
     /tmp/ccYs9ZNF.s:2881   .debug_loc:00000000000001f9 .LLST3
     /tmp/ccYs9ZNF.s:2943   .debug_loc:00000000000002e9 .LLST4
     /tmp/ccYs9ZNF.s:179    .text:0000000000000058 .LBB22
     /tmp/ccYs9ZNF.s:196    .text:0000000000000074 .LBE22
     /tmp/ccYs9ZNF.s:2957   .debug_loc:0000000000000322 .LLST5
     /tmp/ccYs9ZNF.s:2970   .debug_loc:000000000000035a .LLST6
     /tmp/ccYs9ZNF.s:192    .text:0000000000000074 .LVL15
     /tmp/ccYs9ZNF.s:208    .text:0000000000000088 .LBB25
     /tmp/ccYs9ZNF.s:225    .text:00000000000000a4 .LBE25
     /tmp/ccYs9ZNF.s:2985   .debug_loc:00000000000003a3 .LLST7
     /tmp/ccYs9ZNF.s:2996   .debug_loc:00000000000003d9 .LLST8
     /tmp/ccYs9ZNF.s:221    .text:00000000000000a4 .LVL19
     /tmp/ccYs9ZNF.s:237    .text:00000000000000b8 .LBB28
     /tmp/ccYs9ZNF.s:254    .text:00000000000000d4 .LBE28
     /tmp/ccYs9ZNF.s:3011   .debug_loc:0000000000000422 .LLST9
     /tmp/ccYs9ZNF.s:3024   .debug_loc:000000000000045a .LLST10
     /tmp/ccYs9ZNF.s:250    .text:00000000000000d4 .LVL23
     /tmp/ccYs9ZNF.s:266    .text:00000000000000e8 .LBB31
     /tmp/ccYs9ZNF.s:283    .text:0000000000000104 .LBE31
     /tmp/ccYs9ZNF.s:3039   .debug_loc:00000000000004a3 .LLST11
     /tmp/ccYs9ZNF.s:3052   .debug_loc:00000000000004db .LLST12
     /tmp/ccYs9ZNF.s:279    .text:0000000000000104 .LVL27
     /tmp/ccYs9ZNF.s:168    .text:0000000000000044 .LVL11
     /tmp/ccYs9ZNF.s:175    .text:0000000000000054 .LVL12
     /tmp/ccYs9ZNF.s:204    .text:0000000000000084 .LVL16
     /tmp/ccYs9ZNF.s:233    .text:00000000000000b4 .LVL20
     /tmp/ccYs9ZNF.s:262    .text:00000000000000e4 .LVL24
     /tmp/ccYs9ZNF.s:313    .text:0000000000000134 .LVL31
     /tmp/ccYs9ZNF.s:317    .text:0000000000000140 .LVL32
     /tmp/ccYs9ZNF.s:325    .text:0000000000000150 .LVL34
     /tmp/ccYs9ZNF.s:329    .text:000000000000015c .LVL35
     /tmp/ccYs9ZNF.s:337    .text:000000000000016c .LVL37
     /tmp/ccYs9ZNF.s:341    .text:0000000000000178 .LVL38
     /tmp/ccYs9ZNF.s:349    .text:0000000000000188 .LVL40
     /tmp/ccYs9ZNF.s:353    .text:0000000000000194 .LVL41
     /tmp/ccYs9ZNF.s:3211   .debug_str:0000000000000216 .LASF46
     /tmp/ccYs9ZNF.s:113    .text._ZN9SemaphoreD0Ev:0000000000000050 .LFE51
     /tmp/ccYs9ZNF.s:3067   .debug_loc:0000000000000524 .LLST1
     /tmp/ccYs9ZNF.s:82     .text._ZN9SemaphoreD0Ev:0000000000000018 .LBB19
     /tmp/ccYs9ZNF.s:94     .text._ZN9SemaphoreD0Ev:0000000000000030 .LBE19
GAS LISTING /tmp/ccYs9ZNF.s 			page 28


     /tmp/ccYs9ZNF.s:3085   .debug_loc:0000000000000570 .LLST2
     /tmp/ccYs9ZNF.s:92     .text._ZN9SemaphoreD0Ev:0000000000000030 .LVL6
     /tmp/ccYs9ZNF.s:99     .text._ZN9SemaphoreD0Ev:000000000000003c .LVL7
     /tmp/ccYs9ZNF.s:3149   .debug_str:0000000000000042 .LASF47
     /tmp/ccYs9ZNF.s:11     .text._ZN9SemaphoreD2Ev:0000000000000000 .LFB49
     /tmp/ccYs9ZNF.s:47     .text._ZN9SemaphoreD2Ev:0000000000000038 .LFE49
     /tmp/ccYs9ZNF.s:3096   .debug_loc:00000000000005a6 .LLST0
     /tmp/ccYs9ZNF.s:35     .text._ZN9SemaphoreD2Ev:0000000000000028 .LVL2
     /tmp/ccYs9ZNF.s:3151   .debug_str:0000000000000054 .LASF49
     /tmp/ccYs9ZNF.s:3159   .debug_str:000000000000007d .LASF78
     /tmp/ccYs9ZNF.s:3163   .debug_str:00000000000000a4 .LASF50
     /tmp/ccYs9ZNF.s:3291   .debug_str:00000000000004c5 .LASF52
     /tmp/ccYs9ZNF.s:3241   .debug_str:00000000000002b9 .LASF51
     /tmp/ccYs9ZNF.s:3267   .debug_str:0000000000000370 .LASF53
     /tmp/ccYs9ZNF.s:3249   .debug_str:00000000000002fe .LASF54
     /tmp/ccYs9ZNF.s:3285   .debug_str:00000000000004ac .LASF55
     /tmp/ccYs9ZNF.s:3191   .debug_str:000000000000017f .LASF56
     /tmp/ccYs9ZNF.s:3221   .debug_str:0000000000000248 .LASF57
     /tmp/ccYs9ZNF.s:3177   .debug_str:000000000000011b .LASF58
     /tmp/ccYs9ZNF.s:3299   .debug_str:0000000000000502 .LASF59
     /tmp/ccYs9ZNF.s:3227   .debug_str:0000000000000261 .LASF60
     /tmp/ccYs9ZNF.s:3141   .debug_str:000000000000000a .LASF61
     /tmp/ccYs9ZNF.s:3293   .debug_str:00000000000004d1 .LASF79
     /tmp/ccYs9ZNF.s:3187   .debug_str:0000000000000159 .LASF80
     /tmp/ccYs9ZNF.s:3167   .debug_str:00000000000000c7 .LASF62
     /tmp/ccYs9ZNF.s:3235   .debug_str:0000000000000291 .LASF63
     /tmp/ccYs9ZNF.s:585    .text:00000000000002b0 .LVL58
     /tmp/ccYs9ZNF.s:603    .text:00000000000002d0 .LVL59
     /tmp/ccYs9ZNF.s:644    .text:000000000000031c .LVL65
     /tmp/ccYs9ZNF.s:651    .text:0000000000000328 .LVL67
     /tmp/ccYs9ZNF.s:621    .text:00000000000002f4 .LVL62
     /tmp/ccYs9ZNF.s:647    .text:0000000000000320 .LVL66
     /tmp/ccYs9ZNF.s:503    .text:0000000000000224 .LVL49
     /tmp/ccYs9ZNF.s:520    .text:0000000000000244 .LVL50
     /tmp/ccYs9ZNF.s:568    .text:00000000000002a4 .LVL56
     /tmp/ccYs9ZNF.s:538    .text:000000000000026c .LVL53
     /tmp/ccYs9ZNF.s:571    .text:00000000000002a8 .LVL57
     /tmp/ccYs9ZNF.s:423    .text:0000000000000194 .LVL42
     /tmp/ccYs9ZNF.s:441    .text:00000000000001b8 .LVL43
     /tmp/ccYs9ZNF.s:487    .text:0000000000000218 .LVL48
     /tmp/ccYs9ZNF.s:679    .text:0000000000000338 .LVL68
     /tmp/ccYs9ZNF.s:695    .text:0000000000000354 .LVL69
     /tmp/ccYs9ZNF.s:810    .text:0000000000000430 .LVL82
     /tmp/ccYs9ZNF.s:721    .text:000000000000038c .LVL73
     /tmp/ccYs9ZNF.s:137    .text:0000000000000000 .LVL9
     /tmp/ccYs9ZNF.s:158    .text:000000000000002c .LVL10
     /tmp/ccYs9ZNF.s:296    .text:0000000000000114 .LVL28
     /tmp/ccYs9ZNF.s:304    .text:0000000000000124 .LVL29
     /tmp/ccYs9ZNF.s:308    .text:0000000000000128 .LVL30
     /tmp/ccYs9ZNF.s:321    .text:0000000000000144 .LVL33
     /tmp/ccYs9ZNF.s:333    .text:0000000000000160 .LVL36
     /tmp/ccYs9ZNF.s:345    .text:000000000000017c .LVL39
     /tmp/ccYs9ZNF.s:178    .text:0000000000000058 .LVL13
     /tmp/ccYs9ZNF.s:189    .text:000000000000006c .LVL14
     /tmp/ccYs9ZNF.s:207    .text:0000000000000088 .LVL17
     /tmp/ccYs9ZNF.s:218    .text:000000000000009c .LVL18
     /tmp/ccYs9ZNF.s:236    .text:00000000000000b8 .LVL21
GAS LISTING /tmp/ccYs9ZNF.s 			page 29


     /tmp/ccYs9ZNF.s:247    .text:00000000000000cc .LVL22
     /tmp/ccYs9ZNF.s:265    .text:00000000000000e8 .LVL25
     /tmp/ccYs9ZNF.s:276    .text:00000000000000fc .LVL26
     /tmp/ccYs9ZNF.s:69     .text._ZN9SemaphoreD0Ev:0000000000000000 .LVL3
     /tmp/ccYs9ZNF.s:90     .text._ZN9SemaphoreD0Ev:0000000000000028 .LVL5
     /tmp/ccYs9ZNF.s:108    .text._ZN9SemaphoreD0Ev:0000000000000048 .LVL8
     /tmp/ccYs9ZNF.s:81     .text._ZN9SemaphoreD0Ev:0000000000000018 .LVL4
     /tmp/ccYs9ZNF.s:17     .text._ZN9SemaphoreD2Ev:0000000000000000 .LVL0
     /tmp/ccYs9ZNF.s:33     .text._ZN9SemaphoreD2Ev:0000000000000020 .LVL1
     /tmp/ccYs9ZNF.s:843    .debug_info:0000000000000000 .Ldebug_info0
     /tmp/ccYs9ZNF.s:5      .text:0000000000000000 .Ltext0
     /tmp/ccYs9ZNF.s:837    .text:0000000000000438 .Letext0
     /tmp/ccYs9ZNF.s:50     .gcc_except_table._ZN9SemaphoreD2Ev:0000000000000000 .LLSDA49
     /tmp/ccYs9ZNF.s:115    .gcc_except_table._ZN9SemaphoreD0Ev:0000000000000000 .LLSDA51
     /tmp/ccYs9ZNF.s:359    .gcc_except_table:0000000000000000 .LLSDA58
     /tmp/ccYs9ZNF.s:817    .gcc_except_table:00000000000000a1 .LLSDA61
                           .group:0000000000000000 _ZN9SemaphoreD5Ev

UNDEFINED SYMBOLS
_Z9sem_closeP4_sem
__gxx_personality_v0
_ZdlPv
_Z9mem_allocm
_Znwm
_Z8sem_openPP4_semj
_Unwind_Resume
_ZN9Semaphore4waitEv
_ZN9Semaphore6signalEv
_ZN7Console4putcEc
_Z11printStringPKc
_Z8mem_freePv
