GAS LISTING /tmp/ccwvpN9y.s 			page 1


   1              		.file	"inputBuffer.cpp"
   2              		.option pic
   3              		.option norelax
   4              		.text
   5              	.Ltext0:
   6              		.section	.text._ZN11InputBufferD2Ev,"axG",@progbits,_ZN11InputBufferD5Ev,comdat
   7              		.align	2
   8              		.weak	_ZN11InputBufferD2Ev
  10              	_ZN11InputBufferD2Ev:
  11              	.LFB46:
  12              		.file 1 "src/../h/inputBuffer.hpp"
   1:src/../h/inputBuffer.hpp **** #include "consoleBuffer.hpp"
   2:src/../h/inputBuffer.hpp **** 
   3:src/../h/inputBuffer.hpp **** 
   4:src/../h/inputBuffer.hpp **** class InputBuffer : public ConsoleBuffer{
  13              		.loc 1 4 7
  14              		.cfi_startproc
  15              	.LVL0:
  16 0000 130101FF 		addi	sp,sp,-16
  17              		.cfi_def_cfa_offset 16
  18 0004 23341100 		sd	ra,8(sp)
  19 0008 23308100 		sd	s0,0(sp)
  20              		.cfi_offset 1, -8
  21              		.cfi_offset 8, -16
  22 000c 13040101 		addi	s0,sp,16
  23              		.cfi_def_cfa 8, 0
  24              	.LBB14:
  25              		.loc 1 4 7 is_stmt 0
  26 0010 97070000 		lla	a5,_ZTV11InputBuffer+16
  26      93870700 
  27 0018 2330F500 		sd	a5,0(a0)
  28 001c 97000000 		call	_ZN13ConsoleBufferD2Ev@plt
  28      E7800000 
  29              	.LVL1:
  30              	.LBE14:
  31 0024 83308100 		ld	ra,8(sp)
  32              		.cfi_restore 1
  33 0028 03340100 		ld	s0,0(sp)
  34              		.cfi_restore 8
  35              		.cfi_def_cfa 2, 16
  36 002c 13010101 		addi	sp,sp,16
  37              		.cfi_def_cfa_offset 0
  38 0030 67800000 		jr	ra
  39              		.cfi_endproc
  40              	.LFE46:
  42              		.weak	_ZN11InputBufferD1Ev
  43              		.set	_ZN11InputBufferD1Ev,_ZN11InputBufferD2Ev
  44              		.section	.text._ZN11InputBufferD0Ev,"axG",@progbits,_ZN11InputBufferD5Ev,comdat
  45              		.align	2
  46              		.weak	_ZN11InputBufferD0Ev
  48              	_ZN11InputBufferD0Ev:
  49              	.LFB48:
  50              		.loc 1 4 7 is_stmt 1
  51              		.cfi_startproc
  52              	.LVL2:
  53 0000 130101FE 		addi	sp,sp,-32
  54              		.cfi_def_cfa_offset 32
GAS LISTING /tmp/ccwvpN9y.s 			page 2


  55 0004 233C1100 		sd	ra,24(sp)
  56 0008 23388100 		sd	s0,16(sp)
  57 000c 23349100 		sd	s1,8(sp)
  58              		.cfi_offset 1, -8
  59              		.cfi_offset 8, -16
  60              		.cfi_offset 9, -24
  61 0010 13040102 		addi	s0,sp,32
  62              		.cfi_def_cfa 8, 0
  63 0014 93040500 		mv	s1,a0
  64              	.LVL3:
  65              	.LBB15:
  66              	.LBB16:
  67              		.loc 1 4 7 is_stmt 0
  68 0018 97070000 		lla	a5,_ZTV11InputBuffer+16
  68      93870700 
  69 0020 2330F500 		sd	a5,0(a0)
  70 0024 97000000 		call	_ZN13ConsoleBufferD2Ev@plt
  70      E7800000 
  71              	.LVL4:
  72              	.LBE16:
  73              	.LBE15:
  74              	.LBB17:
  75              	.LBB18:
   5:src/../h/inputBuffer.hpp **** private:
   6:src/../h/inputBuffer.hpp ****     int num;
   7:src/../h/inputBuffer.hpp **** public:
   8:src/../h/inputBuffer.hpp ****     InputBuffer(int cap) : ConsoleBuffer(cap) {}
   9:src/../h/inputBuffer.hpp **** 
  10:src/../h/inputBuffer.hpp ****     static InputBuffer* inputBuffer;
  11:src/../h/inputBuffer.hpp ****     static void createInputBuffer();
  12:src/../h/inputBuffer.hpp ****     static void deleteInputBuffer();
  13:src/../h/inputBuffer.hpp **** 
  14:src/../h/inputBuffer.hpp ****     void put(char val) override;
  15:src/../h/inputBuffer.hpp ****     int get() override;
  16:src/../h/inputBuffer.hpp **** 
  17:src/../h/inputBuffer.hpp ****     void* operator new(size_t sz){
  18:src/../h/inputBuffer.hpp ****         sz = (sz + sizeof(size_t))/MEM_BLOCK_SIZE + (((sz + sizeof(size_t))%MEM_BLOCK_SIZE)==0?0:1)
  19:src/../h/inputBuffer.hpp ****         return MemoryAllocator::kmem_alloc(sz);
  20:src/../h/inputBuffer.hpp ****     }
  21:src/../h/inputBuffer.hpp **** 
  22:src/../h/inputBuffer.hpp ****     void operator delete(void* arg){
  23:src/../h/inputBuffer.hpp ****         MemoryAllocator::kmem_free(arg);
  76              		.loc 1 23 9 is_stmt 1
  77              		.loc 1 23 35 is_stmt 0
  78 002c 13850400 		mv	a0,s1
  79 0030 97000000 		call	_ZN15MemoryAllocator9kmem_freeEPv@plt
  79      E7800000 
  80              	.LVL5:
  81              	.LBE18:
  82              	.LBE17:
   4:src/../h/inputBuffer.hpp **** private:
  83              		.loc 1 4 7
  84 0038 83308101 		ld	ra,24(sp)
  85              		.cfi_restore 1
  86 003c 03340101 		ld	s0,16(sp)
  87              		.cfi_restore 8
  88              		.cfi_def_cfa 2, 32
GAS LISTING /tmp/ccwvpN9y.s 			page 3


  89 0040 83348100 		ld	s1,8(sp)
  90              		.cfi_restore 9
  91              	.LVL6:
  92 0044 13010102 		addi	sp,sp,32
  93              		.cfi_def_cfa_offset 0
  94 0048 67800000 		jr	ra
  95              		.cfi_endproc
  96              	.LFE48:
  98              		.text
  99              		.align	2
 100              		.globl	_ZN11InputBuffer17createInputBufferEv
 102              	_ZN11InputBuffer17createInputBufferEv:
 103              	.LFB41:
 104              		.file 2 "src/inputBuffer.cpp"
   1:src/inputBuffer.cpp **** #include "../h/inputBuffer.hpp"
   2:src/inputBuffer.cpp **** 
   3:src/inputBuffer.cpp **** InputBuffer* InputBuffer::inputBuffer = nullptr;
   4:src/inputBuffer.cpp **** 
   5:src/inputBuffer.cpp **** void InputBuffer::createInputBuffer() {
 105              		.loc 2 5 39 is_stmt 1
 106              		.cfi_startproc
 107              		.cfi_personality 0x9b,DW.ref.__gxx_personality_v0
 108              		.cfi_lsda 0x1b,.LLSDA41
 109 0000 130101FE 		addi	sp,sp,-32
 110              		.cfi_def_cfa_offset 32
 111 0004 233C1100 		sd	ra,24(sp)
 112 0008 23388100 		sd	s0,16(sp)
 113 000c 23349100 		sd	s1,8(sp)
 114 0010 23302101 		sd	s2,0(sp)
 115              		.cfi_offset 1, -8
 116              		.cfi_offset 8, -16
 117              		.cfi_offset 9, -24
 118              		.cfi_offset 18, -32
 119 0014 13040102 		addi	s0,sp,32
 120              		.cfi_def_cfa 8, 0
   6:src/inputBuffer.cpp ****     inputBuffer = new InputBuffer(2048);
 121              		.loc 2 6 5
 122              	.LVL7:
 123              	.LBB19:
 124              	.LBB20:
  18:src/../h/inputBuffer.hpp ****         return MemoryAllocator::kmem_alloc(sz);
 125              		.loc 1 18 9
  19:src/../h/inputBuffer.hpp ****     }
 126              		.loc 1 19 9
  19:src/../h/inputBuffer.hpp ****     }
 127              		.loc 1 19 43 is_stmt 0
 128 0018 13052000 		li	a0,2
 129              	.LEHB0:
 130 001c 97000000 		call	_ZN15MemoryAllocator10kmem_allocEm@plt
 130      E7800000 
 131              	.LVL8:
 132              	.LEHE0:
 133 0024 93040500 		mv	s1,a0
 134              	.LVL9:
 135              	.LBE20:
 136              	.LBE19:
 137              	.LBB21:
GAS LISTING /tmp/ccwvpN9y.s 			page 4


 138              	.LBB22:
   8:src/../h/inputBuffer.hpp **** 
 139              		.loc 1 8 45
 140 0028 B7150000 		li	a1,4096
 141 002c 93850580 		addi	a1,a1,-2048
 142              	.LEHB1:
 143 0030 97000000 		call	_ZN13ConsoleBufferC2Ei@plt
 143      E7800000 
 144              	.LVL10:
 145              	.LEHE1:
 146 0038 97070000 		lla	a5,_ZTV11InputBuffer+16
 146      93870700 
 147 0040 23B0F400 		sd	a5,0(s1)
 148              	.LVL11:
 149              	.LBE22:
 150              	.LBE21:
 151              		.loc 2 6 17
 152 0044 97070000 		sd	s1,.LANCHOR0,a5
 152      23B09700 
   7:src/inputBuffer.cpp **** }
 153              		.loc 2 7 1
 154 004c 83308101 		ld	ra,24(sp)
 155              		.cfi_remember_state
 156              		.cfi_restore 1
 157 0050 03340101 		ld	s0,16(sp)
 158              		.cfi_restore 8
 159              		.cfi_def_cfa 2, 32
 160 0054 83348100 		ld	s1,8(sp)
 161              		.cfi_restore 9
 162 0058 03390100 		ld	s2,0(sp)
 163              		.cfi_restore 18
 164 005c 13010102 		addi	sp,sp,32
 165              		.cfi_def_cfa_offset 0
 166 0060 67800000 		jr	ra
 167              	.LVL12:
 168              	.L7:
 169              		.cfi_restore_state
 170 0064 13090500 		mv	s2,a0
 171              	.LVL13:
 172              	.LBB23:
 173              	.LBB24:
 174              		.loc 1 23 9 is_stmt 1
 175              		.loc 1 23 35 is_stmt 0
 176 0068 13850400 		mv	a0,s1
 177 006c 97000000 		call	_ZN15MemoryAllocator9kmem_freeEPv@plt
 177      E7800000 
 178              	.LVL14:
 179 0074 13050900 		mv	a0,s2
 180              	.LEHB2:
 181 0078 97000000 		call	_Unwind_Resume@plt
 181      E7800000 
 182              	.LVL15:
 183              	.LEHE2:
 184              	.LBE24:
 185              	.LBE23:
 186              		.cfi_endproc
 187              	.LFE41:
GAS LISTING /tmp/ccwvpN9y.s 			page 5


 188              		.globl	__gxx_personality_v0
 189              		.section	.gcc_except_table,"a",@progbits
 190              	.LLSDA41:
 191 0000 FF       		.byte	0xff
 192 0001 FF       		.byte	0xff
 193 0002 03       		.byte	0x3
 194 0003 27       		.byte	0x27
 195 0004 00000000 		.4byte	.LEHB0-.LFB41
 196 0008 00000000 		.4byte	.LEHE0-.LEHB0
 197 000c 00000000 		.4byte	0
 198 0010 00       		.byte	0
 199 0011 00000000 		.4byte	.LEHB1-.LFB41
 200 0015 00000000 		.4byte	.LEHE1-.LEHB1
 201 0019 00000000 		.4byte	.L7-.LFB41
 202 001d 00       		.byte	0
 203 001e 00000000 		.4byte	.LEHB2-.LFB41
 204 0022 00000000 		.4byte	.LEHE2-.LEHB2
 205 0026 00000000 		.4byte	0
 206 002a 00       		.byte	0
 207              		.text
 209              		.align	2
 210              		.globl	_ZN11InputBuffer17deleteInputBufferEv
 212              	_ZN11InputBuffer17deleteInputBufferEv:
 213              	.LFB42:
   8:src/inputBuffer.cpp **** 
   9:src/inputBuffer.cpp **** void InputBuffer::deleteInputBuffer() {
 214              		.loc 2 9 39 is_stmt 1
 215              		.cfi_startproc
  10:src/inputBuffer.cpp ****     delete inputBuffer;
 216              		.loc 2 10 5
 217              		.loc 2 10 12 is_stmt 0
 218 0080 17050000 		ld	a0,.LANCHOR0
 218      03350500 
 219              		.loc 2 10 23
 220 0088 63080502 		beqz	a0,.L13
   9:src/inputBuffer.cpp ****     delete inputBuffer;
 221              		.loc 2 9 39 discriminator 1
 222 008c 130101FF 		addi	sp,sp,-16
 223              		.cfi_def_cfa_offset 16
 224 0090 23341100 		sd	ra,8(sp)
 225 0094 23308100 		sd	s0,0(sp)
 226              		.cfi_offset 1, -8
 227              		.cfi_offset 8, -16
 228 0098 13040101 		addi	s0,sp,16
 229              		.cfi_def_cfa 8, 0
 230              		.loc 2 10 12 discriminator 1
 231 009c 83370500 		ld	a5,0(a0)
 232 00a0 83B78700 		ld	a5,8(a5)
 233 00a4 E7800700 		jalr	a5
 234              	.LVL16:
  11:src/inputBuffer.cpp **** }
 235              		.loc 2 11 1 discriminator 1
 236 00a8 83308100 		ld	ra,8(sp)
 237              		.cfi_restore 1
 238 00ac 03340100 		ld	s0,0(sp)
 239              		.cfi_restore 8
 240              		.cfi_def_cfa 2, 16
GAS LISTING /tmp/ccwvpN9y.s 			page 6


 241 00b0 13010101 		addi	sp,sp,16
 242              		.cfi_def_cfa_offset 0
 243 00b4 67800000 		jr	ra
 244              	.L13:
 245 00b8 67800000 		ret
 246              		.cfi_endproc
 247              	.LFE42:
 249              		.align	2
 250              		.globl	_ZN11InputBuffer3putEc
 252              	_ZN11InputBuffer3putEc:
 253              	.LFB43:
  12:src/inputBuffer.cpp **** 
  13:src/inputBuffer.cpp **** void InputBuffer::put(char val){
 254              		.loc 2 13 32 is_stmt 1
 255              		.cfi_startproc
 256              	.LVL17:
  14:src/inputBuffer.cpp ****     if(num == cap) return;
 257              		.loc 2 14 5
 258              		.loc 2 14 8 is_stmt 0
 259 00bc 03270504 		lw	a4,64(a0)
 260              		.loc 2 14 15
 261 00c0 83278500 		lw	a5,8(a0)
 262              		.loc 2 14 5
 263 00c4 6302F704 		beq	a4,a5,.L19
  13:src/inputBuffer.cpp ****     if(num == cap) return;
 264              		.loc 2 13 32
 265 00c8 130101FE 		addi	sp,sp,-32
 266              		.cfi_def_cfa_offset 32
 267 00cc 233C1100 		sd	ra,24(sp)
 268 00d0 23388100 		sd	s0,16(sp)
 269 00d4 23349100 		sd	s1,8(sp)
 270              		.cfi_offset 1, -8
 271              		.cfi_offset 8, -16
 272              		.cfi_offset 9, -24
 273 00d8 13040102 		addi	s0,sp,32
 274              		.cfi_def_cfa 8, 0
 275 00dc 93040500 		mv	s1,a0
  15:src/inputBuffer.cpp ****     ConsoleBuffer::put(val);
 276              		.loc 2 15 5 is_stmt 1
 277              		.loc 2 15 23 is_stmt 0
 278 00e0 97000000 		call	_ZN13ConsoleBuffer3putEc@plt
 278      E7800000 
 279              	.LVL18:
  16:src/inputBuffer.cpp ****     num++;
 280              		.loc 2 16 5 is_stmt 1
 281 00e8 83A70404 		lw	a5,64(s1)
 282              		.loc 2 16 8 is_stmt 0
 283 00ec 9B871700 		addiw	a5,a5,1
 284 00f0 23A0F404 		sw	a5,64(s1)
  17:src/inputBuffer.cpp **** }
 285              		.loc 2 17 1
 286 00f4 83308101 		ld	ra,24(sp)
 287              		.cfi_restore 1
 288 00f8 03340101 		ld	s0,16(sp)
 289              		.cfi_restore 8
 290              		.cfi_def_cfa 2, 32
 291 00fc 83348100 		ld	s1,8(sp)
GAS LISTING /tmp/ccwvpN9y.s 			page 7


 292              		.cfi_restore 9
 293              	.LVL19:
 294 0100 13010102 		addi	sp,sp,32
 295              		.cfi_def_cfa_offset 0
 296 0104 67800000 		jr	ra
 297              	.LVL20:
 298              	.L19:
 299 0108 67800000 		ret
 300              		.cfi_endproc
 301              	.LFE43:
 303              		.align	2
 304              		.globl	_ZN11InputBuffer3getEv
 306              	_ZN11InputBuffer3getEv:
 307              	.LFB44:
  18:src/inputBuffer.cpp **** 
  19:src/inputBuffer.cpp **** int InputBuffer::get() {
 308              		.loc 2 19 24 is_stmt 1
 309              		.cfi_startproc
 310              	.LVL21:
 311 010c 130101FE 		addi	sp,sp,-32
 312              		.cfi_def_cfa_offset 32
 313 0110 233C1100 		sd	ra,24(sp)
 314 0114 23388100 		sd	s0,16(sp)
 315 0118 23349100 		sd	s1,8(sp)
 316              		.cfi_offset 1, -8
 317              		.cfi_offset 8, -16
 318              		.cfi_offset 9, -24
 319 011c 13040102 		addi	s0,sp,32
 320              		.cfi_def_cfa 8, 0
 321 0120 93040500 		mv	s1,a0
  20:src/inputBuffer.cpp ****     int res = ConsoleBuffer::get();
 322              		.loc 2 20 5
 323              		.loc 2 20 33 is_stmt 0
 324 0124 97000000 		call	_ZN13ConsoleBuffer3getEv@plt
 324      E7800000 
 325              	.LVL22:
  21:src/inputBuffer.cpp ****     num--;
 326              		.loc 2 21 5 is_stmt 1
 327 012c 83A70404 		lw	a5,64(s1)
 328              		.loc 2 21 8 is_stmt 0
 329 0130 9B87F7FF 		addiw	a5,a5,-1
 330 0134 23A0F404 		sw	a5,64(s1)
  22:src/inputBuffer.cpp ****     return res;
 331              		.loc 2 22 5 is_stmt 1
  23:src/inputBuffer.cpp **** }...
 332              		.loc 2 23 1 is_stmt 0
 333 0138 83308101 		ld	ra,24(sp)
 334              		.cfi_restore 1
 335 013c 03340101 		ld	s0,16(sp)
 336              		.cfi_restore 8
 337              		.cfi_def_cfa 2, 32
 338 0140 83348100 		ld	s1,8(sp)
 339              		.cfi_restore 9
 340              	.LVL23:
 341 0144 13010102 		addi	sp,sp,32
 342              		.cfi_def_cfa_offset 0
 343 0148 67800000 		jr	ra
GAS LISTING /tmp/ccwvpN9y.s 			page 8


 344              		.cfi_endproc
 345              	.LFE44:
 347              		.weak	_ZTV11InputBuffer
 348              		.section	.data.rel.ro.local._ZTV11InputBuffer,"awG",@progbits,_ZTV11InputBuffer,comdat
 349              		.align	3
 352              	_ZTV11InputBuffer:
 353 0000 00000000 		.dword	0
 353      00000000 
 354 0008 00000000 		.dword	0
 354      00000000 
 355 0010 00000000 		.dword	_ZN11InputBufferD1Ev
 355      00000000 
 356 0018 00000000 		.dword	_ZN11InputBufferD0Ev
 356      00000000 
 357 0020 00000000 		.dword	_ZN11InputBuffer3putEc
 357      00000000 
 358 0028 00000000 		.dword	_ZN11InputBuffer3getEv
 358      00000000 
 359              		.globl	_ZN11InputBuffer11inputBufferE
 360              		.bss
 361              		.align	3
 362              		.set	.LANCHOR0,. + 0
 365              	_ZN11InputBuffer11inputBufferE:
 366 0000 00000000 		.zero	8
 366      00000000 
 367              		.text
 368              	.Letext0:
 369              		.file 3 "src/../h/../h/../lib/hw.h"
 370              		.file 4 "src/../h/../h/memory.hpp"
 371              		.file 5 "src/../h/consoleBuffer.hpp"
 372              		.file 6 "src/../h/../h/../h/syscall_c.hpp"
 2383              		.align	3
 2386              	DW.ref.__gxx_personality_v0:
 2387 0000 00000000 		.dword	__gxx_personality_v0
 2387      00000000 
 2388              		.ident	"GCC: (Ubuntu 9.4.0-1ubuntu1~20.04) 9.4.0"
 2389              		.section	.note.GNU-stack,"",@progbits
GAS LISTING /tmp/ccwvpN9y.s 			page 9

