GAS LISTING /tmp/ccPQOVAC.s 			page 1


   1              		.file	"main.cpp"
   2              		.option pic
   3              		.option norelax
   4              		.text
   5              	.Ltext0:
   6              		.align	2
   7              		.globl	_Z12idleFunctionPv
   9              	_Z12idleFunctionPv:
  10              	.LFB51:
  11              		.file 1 "src/main.cpp"
   1:src/main.cpp  **** #include "../h/memory.hpp"
   2:src/main.cpp  **** #include "../h/riscV.hpp"
   3:src/main.cpp  **** #include "../h/syscall_c.hpp"
   4:src/main.cpp  **** #include "../h/printing.hpp"
   5:src/main.cpp  **** #include "../h/thread.hpp"
   6:src/main.cpp  **** #include "../h/inputBuffer.hpp"
   7:src/main.cpp  **** #include "../h/outputBuffer.hpp"
   8:src/main.cpp  **** 
   9:src/main.cpp  **** //#include "../h/Threads_C_API_test.hpp" // zadatak 2, niti C API i sinhrona promena konteksta
  10:src/main.cpp  **** //#include "../h/Threads_CPP_API_test.hpp" // zadatak 2., niti CPP API i sinhrona promena konteksta
  11:src/main.cpp  **** 
  12:src/main.cpp  **** //#include "../h/ConsumerProducer_C_API_test.hpp" // zadatak 3., kompletan C API sa semaforima, sin
  13:src/main.cpp  **** //#include "../h/ConsumerProducer_CPP_Sync_API_test.hpp" // zadatak 3., kompletan CPP API sa semafo
  14:src/main.cpp  **** 
  15:src/main.cpp  **** //#include "../h/ThreadSleep_C_API_test.hpp" // thread_sleep test C API
  16:src/main.cpp  **** //#include "../h/ConsumerProducer_CPP_API_test.hpp" // zadatak 4. CPP API i asinhrona promena konte
  17:src/main.cpp  **** 
  18:src/main.cpp  **** 
  19:src/main.cpp  **** void idleFunction(void* arg){
  12              		.loc 1 19 29
  13              		.cfi_startproc
  14              	.LVL0:
  15 0000 130101FF 		addi	sp,sp,-16
  16              		.cfi_def_cfa_offset 16
  17 0004 23341100 		sd	ra,8(sp)
  18 0008 23308100 		sd	s0,0(sp)
  19              		.cfi_offset 1, -8
  20              		.cfi_offset 8, -16
  21 000c 13040101 		addi	s0,sp,16
  22              		.cfi_def_cfa 8, 0
  23              	.LVL1:
  24              	.L2:
  20:src/main.cpp  ****     while(true){
  25              		.loc 1 20 5 discriminator 1
  21:src/main.cpp  ****         thread_dispatch();
  26              		.loc 1 21 9 discriminator 1
  27              		.loc 1 21 24 is_stmt 0 discriminator 1
  28 0010 97000000 		call	_Z15thread_dispatchv@plt
  28      E7800000 
  29              	.LVL2:
  20:src/main.cpp  ****     while(true){
  30              		.loc 1 20 5 is_stmt 1 discriminator 1
  31 0018 6FF09FFF 		j	.L2
  32              		.cfi_endproc
  33              	.LFE51:
  35              		.align	2
  36              		.globl	_Z10kernelInitv
GAS LISTING /tmp/ccPQOVAC.s 			page 2


  38              	_Z10kernelInitv:
  39              	.LFB52:
  22:src/main.cpp  ****     }
  23:src/main.cpp  **** }
  24:src/main.cpp  **** 
  25:src/main.cpp  **** thread_t idle;
  26:src/main.cpp  **** thread_t consoleThread;
  27:src/main.cpp  **** thread_t mainThread;
  28:src/main.cpp  **** 
  29:src/main.cpp  **** void kernelInit(){
  40              		.loc 1 29 18
  41              		.cfi_startproc
  42 001c 130101FE 		addi	sp,sp,-32
  43              		.cfi_def_cfa_offset 32
  44 0020 233C1100 		sd	ra,24(sp)
  45 0024 23388100 		sd	s0,16(sp)
  46 0028 23349100 		sd	s1,8(sp)
  47              		.cfi_offset 1, -8
  48              		.cfi_offset 8, -16
  49              		.cfi_offset 9, -24
  50 002c 13040102 		addi	s0,sp,32
  51              		.cfi_def_cfa 8, 0
  30:src/main.cpp  ****     MemoryAllocator::kinitMemory();
  52              		.loc 1 30 5
  53              		.loc 1 30 33 is_stmt 0
  54 0030 97000000 		call	_ZN15MemoryAllocator11kinitMemoryEv@plt
  54      E7800000 
  55              	.LVL3:
  31:src/main.cpp  ****     Riscv::w_stvec((uint64) &Riscv::supervisorTrap);
  56              		.loc 1 31 5 is_stmt 1
  57              		.loc 1 31 19 is_stmt 0
  58 0038 97070000 		la	a5,_ZN5Riscv14supervisorTrapEv
  58      83B70700 
  59              	.LVL4:
  60              	.LBB21:
  61              	.LBB22:
  62              		.file 2 "src/../h/riscV.hpp"
   1:src/../h/riscV.hpp **** #ifndef PROJECT_BASE_V1_0_RISCV_HPP
   2:src/../h/riscV.hpp **** #define PROJECT_BASE_V1_0_RISCV_HPP
   3:src/../h/riscV.hpp **** #include "../lib/hw.h"
   4:src/../h/riscV.hpp **** 
   5:src/../h/riscV.hpp **** class Riscv {
   6:src/../h/riscV.hpp **** public:
   7:src/../h/riscV.hpp **** 
   8:src/../h/riscV.hpp ****     static void popSppSpie();
   9:src/../h/riscV.hpp **** 
  10:src/../h/riscV.hpp ****     static void consoleFunc(void*);
  11:src/../h/riscV.hpp **** 
  12:src/../h/riscV.hpp **** 
  13:src/../h/riscV.hpp ****     static uint64 r_scause();
  14:src/../h/riscV.hpp ****     static void w_scause(uint64 scause);
  15:src/../h/riscV.hpp **** 
  16:src/../h/riscV.hpp ****     static uint64 r_sepc();
  17:src/../h/riscV.hpp ****     static void w_sepc(uint64 sepc);
  18:src/../h/riscV.hpp **** 
  19:src/../h/riscV.hpp ****     static uint64 r_stvec();
  20:src/../h/riscV.hpp ****     static void w_stvec(uint64 stvec);
GAS LISTING /tmp/ccPQOVAC.s 			page 3


  21:src/../h/riscV.hpp **** 
  22:src/../h/riscV.hpp ****     static uint64 r_stval();
  23:src/../h/riscV.hpp ****     static void w_stval(uint64 stval);
  24:src/../h/riscV.hpp **** 
  25:src/../h/riscV.hpp ****     enum BitMaskSip {
  26:src/../h/riscV.hpp ****         SIP_SSIE = (1 << 1),
  27:src/../h/riscV.hpp ****         SIP_STIE = (1 << 5),
  28:src/../h/riscV.hpp ****         SIP_SEIE = (1 << 9),
  29:src/../h/riscV.hpp ****     };
  30:src/../h/riscV.hpp **** 
  31:src/../h/riscV.hpp ****     static void ms_sip(uint64 mask);
  32:src/../h/riscV.hpp **** 
  33:src/../h/riscV.hpp ****     static void mc_sip(uint64 mask);
  34:src/../h/riscV.hpp **** 
  35:src/../h/riscV.hpp ****     static void mc_sie(uint64 mask);
  36:src/../h/riscV.hpp ****     static void ms_sie(uint64 mask);
  37:src/../h/riscV.hpp ****     enum BitMaskSie{
  38:src/../h/riscV.hpp ****         SIE_SSIE = (1 << 1),
  39:src/../h/riscV.hpp ****     };
  40:src/../h/riscV.hpp **** 
  41:src/../h/riscV.hpp ****     static uint64 r_sip();
  42:src/../h/riscV.hpp ****     static void w_sip(uint64 sip);
  43:src/../h/riscV.hpp **** 
  44:src/../h/riscV.hpp ****     enum BitMaskSstatus {
  45:src/../h/riscV.hpp ****         SSTATUS_SSIE = (1 << 1),
  46:src/../h/riscV.hpp ****         SSTATUS_STIE = (1 << 5),
  47:src/../h/riscV.hpp ****         SSTATUS_SEIE = (1 << 8),
  48:src/../h/riscV.hpp ****     };
  49:src/../h/riscV.hpp **** 
  50:src/../h/riscV.hpp ****     static void ms_sstatus(uint64 mask);
  51:src/../h/riscV.hpp **** 
  52:src/../h/riscV.hpp ****     static void mc_sstatus(uint64 mask);
  53:src/../h/riscV.hpp **** 
  54:src/../h/riscV.hpp ****     static uint64 r_sstatus();
  55:src/../h/riscV.hpp ****     static void w_sstatus(uint64 sstatus);
  56:src/../h/riscV.hpp **** 
  57:src/../h/riscV.hpp **** 
  58:src/../h/riscV.hpp ****     static void sysCall(uint64, void*, void*, void*, void*);
  59:src/../h/riscV.hpp ****     static void supervisorTrap();
  60:src/../h/riscV.hpp **** 
  61:src/../h/riscV.hpp **** 
  62:src/../h/riscV.hpp **** private:
  63:src/../h/riscV.hpp ****     static void handleSupervisorTrap();
  64:src/../h/riscV.hpp **** };
  65:src/../h/riscV.hpp **** 
  66:src/../h/riscV.hpp **** 
  67:src/../h/riscV.hpp **** inline uint64 Riscv::r_scause() {
  68:src/../h/riscV.hpp ****     uint64 volatile scause;
  69:src/../h/riscV.hpp ****     __asm__ volatile("csrr %[scause], scause" : [scause] "=r"(scause));
  70:src/../h/riscV.hpp ****     return scause;
  71:src/../h/riscV.hpp **** }
  72:src/../h/riscV.hpp **** 
  73:src/../h/riscV.hpp **** inline void Riscv::w_scause(uint64 scause) {
  74:src/../h/riscV.hpp ****     __asm__ volatile("csrw scause, %[scause]" : : [scause] "r"(scause));
  75:src/../h/riscV.hpp **** }
  76:src/../h/riscV.hpp **** 
  77:src/../h/riscV.hpp **** inline uint64 Riscv::r_sepc() {
GAS LISTING /tmp/ccPQOVAC.s 			page 4


  78:src/../h/riscV.hpp ****     uint64 volatile sepc;
  79:src/../h/riscV.hpp ****     __asm__ volatile("csrr %[sepc], sepc" : [sepc] "=r"(sepc));
  80:src/../h/riscV.hpp ****     return sepc;
  81:src/../h/riscV.hpp **** }
  82:src/../h/riscV.hpp **** 
  83:src/../h/riscV.hpp **** inline void Riscv::w_sepc(uint64 sepc) {
  84:src/../h/riscV.hpp ****     __asm__ volatile("csrw sepc, %[sepc]" : : [sepc] "r"(sepc));
  85:src/../h/riscV.hpp **** }
  86:src/../h/riscV.hpp **** 
  87:src/../h/riscV.hpp **** inline uint64 Riscv::r_stvec() {
  88:src/../h/riscV.hpp ****     uint64 volatile stvec;
  89:src/../h/riscV.hpp ****     __asm__ volatile("csrr %[stvec], stvec" : [stvec] "=r"(stvec));
  90:src/../h/riscV.hpp ****     return stvec;
  91:src/../h/riscV.hpp **** }
  92:src/../h/riscV.hpp **** 
  93:src/../h/riscV.hpp **** inline void Riscv::w_stvec(uint64 stvec) {
  94:src/../h/riscV.hpp ****     __asm__ volatile("csrw stvec, %[stvec]" : : [stvec] "r"(stvec));
  63              		.loc 2 94 5 is_stmt 1
  64              		.loc 2 94 68 is_stmt 0
  65              	#APP
  66              	# 94 "src/../h/riscV.hpp" 1
  95              	}
  67              		csrw stvec, a5
  68              	# 0 "" 2
  69              	.LVL5:
  70              	#NO_APP
  71              	.LBE22:
  72              	.LBE21:
  32:src/main.cpp  **** 
  33:src/main.cpp  ****     InputBuffer::createInputBuffer();
  73              		.loc 1 33 5 is_stmt 1
  74              		.loc 1 33 35 is_stmt 0
  75 0044 97000000 		call	_ZN11InputBuffer17createInputBufferEv@plt
  75      E7800000 
  76              	.LVL6:
  34:src/main.cpp  ****     OutputBuffer::createOutputBuffer();
  77              		.loc 1 34 5 is_stmt 1
  78              		.loc 1 34 37 is_stmt 0
  79 004c 97000000 		call	_ZN12OutputBuffer18createOutputBufferEv@plt
  79      E7800000 
  80              	.LVL7:
  35:src/main.cpp  **** 
  36:src/main.cpp  ****     thread_create(&mainThread, nullptr, nullptr);
  81              		.loc 1 36 5 is_stmt 1
  82              		.loc 1 36 18 is_stmt 0
  83 0054 97040000 		lla	s1,.LANCHOR0
  83      93840400 
  84 005c 13060000 		li	a2,0
  85 0060 93050000 		li	a1,0
  86 0064 13850400 		mv	a0,s1
  87 0068 97000000 		call	_Z13thread_createPP7_threadPFvPvES2_@plt
  87      E7800000 
  88              	.LVL8:
  37:src/main.cpp  ****     _thread::running = mainThread;
  89              		.loc 1 37 5 is_stmt 1
  90              		.loc 1 37 22 is_stmt 0
  91 0070 03B70400 		ld	a4,0(s1)
GAS LISTING /tmp/ccPQOVAC.s 			page 5


  92 0074 97070000 		la	a5,_ZN7_thread7runningE
  92      83B70700 
  93 007c 23B0E700 		sd	a4,0(a5)
  38:src/main.cpp  **** 
  39:src/main.cpp  ****     thread_create(&idle, idleFunction, nullptr);
  94              		.loc 1 39 5 is_stmt 1
  95              		.loc 1 39 18 is_stmt 0
  96 0080 13060000 		li	a2,0
  97 0084 97050000 		lla	a1,_Z12idleFunctionPv
  97      93850500 
  98 008c 17050000 		lla	a0,.LANCHOR0+8
  98      13050500 
  99 0094 97000000 		call	_Z13thread_createPP7_threadPFvPvES2_@plt
  99      E7800000 
 100              	.LVL9:
  40:src/main.cpp  **** 
  41:src/main.cpp  ****     thread_create(&consoleThread, Riscv::consoleFunc, nullptr); //fja,globalna ili u riscv, uzimanj
 101              		.loc 1 41 5 is_stmt 1
 102              		.loc 1 41 18 is_stmt 0
 103 009c 13060000 		li	a2,0
 104 00a0 97050000 		la	a1,_ZN5Riscv11consoleFuncEPv
 104      83B50500 
 105 00a8 17050000 		lla	a0,.LANCHOR0+16
 105      13050500 
 106 00b0 97000000 		call	_Z13thread_createPP7_threadPFvPvES2_@plt
 106      E7800000 
 107              	.LVL10:
  42:src/main.cpp  **** 
  43:src/main.cpp  ****     Riscv::ms_sstatus(Riscv::SSTATUS_SSIE);
 108              		.loc 1 43 5 is_stmt 1
 109              	.LBB23:
 110              	.LBB24:
  96:src/../h/riscV.hpp **** 
  97:src/../h/riscV.hpp **** inline uint64 Riscv::r_stval() {
  98:src/../h/riscV.hpp ****     uint64 volatile stval;
  99:src/../h/riscV.hpp ****     __asm__ volatile("csrr %[stval], stval": [stval] "=r"(stval));
 100:src/../h/riscV.hpp ****     return stval;
 101:src/../h/riscV.hpp **** }
 102:src/../h/riscV.hpp **** 
 103:src/../h/riscV.hpp **** inline void Riscv::w_stval(uint64 stval) {
 104:src/../h/riscV.hpp ****     __asm__ volatile("csrw stval, %[stval]" : : [stval] "r"(stval));
 105:src/../h/riscV.hpp **** }
 106:src/../h/riscV.hpp **** 
 107:src/../h/riscV.hpp **** inline uint64 Riscv::r_sip() {
 108:src/../h/riscV.hpp ****     uint64 volatile sip;
 109:src/../h/riscV.hpp ****     __asm__ volatile("csrr %[sip], sip": [sip] "=r"(sip));
 110:src/../h/riscV.hpp ****     return sip;
 111:src/../h/riscV.hpp **** }
 112:src/../h/riscV.hpp **** 
 113:src/../h/riscV.hpp **** inline void Riscv::w_sip(uint64 sip) {
 114:src/../h/riscV.hpp ****     __asm__ volatile("csrw sip, %[sip]" : : [sip] "r"(sip));
 115:src/../h/riscV.hpp **** }
 116:src/../h/riscV.hpp **** 
 117:src/../h/riscV.hpp **** inline uint64 Riscv::r_sstatus() {
 118:src/../h/riscV.hpp ****     uint64 volatile sstatus;
 119:src/../h/riscV.hpp ****     __asm__ volatile ("csrr %[sstatus], sstatus" : [sstatus] "=r"(sstatus));
 120:src/../h/riscV.hpp ****     return sstatus;
GAS LISTING /tmp/ccPQOVAC.s 			page 6


 121:src/../h/riscV.hpp **** }
 122:src/../h/riscV.hpp **** 
 123:src/../h/riscV.hpp **** inline void Riscv::w_sstatus(uint64 sstatus) {
 124:src/../h/riscV.hpp ****     __asm__ volatile("csrw sstatus, %[sstatus]" : : [sstatus] "r"(sstatus));
 125:src/../h/riscV.hpp **** }
 126:src/../h/riscV.hpp **** 
 127:src/../h/riscV.hpp **** inline void Riscv::ms_sstatus(uint64 mask) {
 128:src/../h/riscV.hpp ****     __asm__ volatile("csrs sstatus, %[mask]" : : [mask] "r"(mask));
 111              		.loc 2 128 5
 112              		.loc 2 128 67 is_stmt 0
 113 00b8 93072000 		li	a5,2
 114              	#APP
 115              	# 128 "src/../h/riscV.hpp" 1
 129              	}
 116              		csrs sstatus, a5
 117              	# 0 "" 2
 118              	.LVL11:
 119              	#NO_APP
 120              	.LBE24:
 121              	.LBE23:
  44:src/main.cpp  **** 
  45:src/main.cpp  **** }
 122              		.loc 1 45 1
 123 00c0 83308101 		ld	ra,24(sp)
 124              		.cfi_restore 1
 125 00c4 03340101 		ld	s0,16(sp)
 126              		.cfi_restore 8
 127              		.cfi_def_cfa 2, 32
 128 00c8 83348100 		ld	s1,8(sp)
 129              		.cfi_restore 9
 130 00cc 13010102 		addi	sp,sp,32
 131              		.cfi_def_cfa_offset 0
 132 00d0 67800000 		jr	ra
 133              		.cfi_endproc
 134              	.LFE52:
 136              		.align	2
 137              		.globl	_Z9dealocatev
 139              	_Z9dealocatev:
 140              	.LFB53:
  46:src/main.cpp  **** 
  47:src/main.cpp  **** void dealocate(){
 141              		.loc 1 47 17 is_stmt 1
 142              		.cfi_startproc
 143              		.cfi_personality 0x9b,DW.ref.__gxx_personality_v0
 144              		.cfi_lsda 0x1b,.LLSDA53
 145 00d4 130101FE 		addi	sp,sp,-32
 146              		.cfi_def_cfa_offset 32
 147 00d8 233C1100 		sd	ra,24(sp)
 148 00dc 23388100 		sd	s0,16(sp)
 149 00e0 23349100 		sd	s1,8(sp)
 150              		.cfi_offset 1, -8
 151              		.cfi_offset 8, -16
 152              		.cfi_offset 9, -24
 153 00e4 13040102 		addi	s0,sp,32
 154              		.cfi_def_cfa 8, 0
  48:src/main.cpp  ****     InputBuffer::deleteInputBuffer();
 155              		.loc 1 48 5
GAS LISTING /tmp/ccPQOVAC.s 			page 7


 156              	.LEHB0:
 157              		.loc 1 48 35 is_stmt 0
 158 00e8 97000000 		call	_ZN11InputBuffer17deleteInputBufferEv@plt
 158      E7800000 
 159              	.LVL12:
  49:src/main.cpp  ****     OutputBuffer::deleteOutputBuffer();
 160              		.loc 1 49 5 is_stmt 1
 161              		.loc 1 49 37 is_stmt 0
 162 00f0 97000000 		call	_ZN12OutputBuffer18deleteOutputBufferEv@plt
 162      E7800000 
 163              	.LVL13:
 164              	.LEHE0:
  50:src/main.cpp  ****     delete idle;
 165              		.loc 1 50 5 is_stmt 1
 166              		.loc 1 50 12 is_stmt 0
 167 00f8 97040000 		ld	s1,.LANCHOR0+8
 167      83B40400 
 168              		.loc 1 50 16
 169 0100 63800402 		beqz	s1,.L7
 170              	.LVL14:
 171              	.LBB25:
 172              	.LBB26:
 173              		.file 3 "src/../h/thread.hpp"
   1:src/../h/thread.hpp **** #ifndef PROJECT_BASE_V1_0_THREAD_HPP
   2:src/../h/thread.hpp **** #define PROJECT_BASE_V1_0_THREAD_HPP
   3:src/../h/thread.hpp **** #include "../lib/hw.h"
   4:src/../h/thread.hpp **** #include "../h/scheduler.hpp"
   5:src/../h/thread.hpp **** #include "../h/riscV.hpp"
   6:src/../h/thread.hpp **** #include "../h/syscall_c.hpp"
   7:src/../h/thread.hpp **** #include "../h/sleepQueue.hpp"
   8:src/../h/thread.hpp **** #include "../h/memory.hpp"
   9:src/../h/thread.hpp **** 
  10:src/../h/thread.hpp **** class _thread {
  11:src/../h/thread.hpp **** public:
  12:src/../h/thread.hpp ****     ~_thread() {
  13:src/../h/thread.hpp ****         if(stack)
 174              		.loc 3 13 9 is_stmt 1
 175              		.loc 3 13 12 is_stmt 0
 176 0104 03B50402 		ld	a0,32(s1)
 177              		.loc 3 13 9
 178 0108 63060500 		beqz	a0,.L8
  14:src/../h/thread.hpp ****             MemoryAllocator::kmem_free(stack);
 179              		.loc 3 14 13 is_stmt 1
 180              		.loc 3 14 39 is_stmt 0
 181 010c 97000000 		call	_ZN15MemoryAllocator9kmem_freeEPv@plt
 181      E7800000 
 182              	.LVL15:
 183              	.L8:
 184              	.LBE26:
 185              	.LBE25:
 186              	.LBB27:
 187              	.LBB28:
  15:src/../h/thread.hpp ****     }
  16:src/../h/thread.hpp ****     bool isFinished() const { return finished; }
  17:src/../h/thread.hpp ****     void setFinished(bool value) { finished = value; }
  18:src/../h/thread.hpp ****     uint64 getTimeSlice() const { return timeSlice; }
  19:src/../h/thread.hpp ****     uint64 getTimeToSleep() const { return timeToSleep; }
GAS LISTING /tmp/ccPQOVAC.s 			page 8


  20:src/../h/thread.hpp ****     void decTimeToSleep() { timeToSleep--; }
  21:src/../h/thread.hpp ****     using Body = void (*)(void*);
  22:src/../h/thread.hpp ****     static int createThread(thread_t* handle, Body body, void*arg, uint64*stek, int flag);
  23:src/../h/thread.hpp ****     static _thread *running;
  24:src/../h/thread.hpp ****     static void kdispatch(int flag);
  25:src/../h/thread.hpp ****     static void threadWrapper();
  26:src/../h/thread.hpp ****     static int sleep(time_t time);
  27:src/../h/thread.hpp ****     static void addToScheduler(thread_t);
  28:src/../h/thread.hpp ****     static void setTimeSliceCounter(){ timeSliceCounter = 0; }
  29:src/../h/thread.hpp **** 
  30:src/../h/thread.hpp ****     void operator delete(void * arg){
  31:src/../h/thread.hpp ****         MemoryAllocator::kmem_free(arg);
 188              		.loc 3 31 9 is_stmt 1
 189              		.loc 3 31 35 is_stmt 0
 190 0114 13850400 		mv	a0,s1
 191              	.LEHB1:
 192 0118 97000000 		call	_ZN15MemoryAllocator9kmem_freeEPv@plt
 192      E7800000 
 193              	.LVL16:
 194              	.LEHE1:
 195              	.L7:
 196              	.LBE28:
 197              	.LBE27:
  51:src/main.cpp  ****     delete consoleThread;
 198              		.loc 1 51 5 is_stmt 1
 199              		.loc 1 51 12 is_stmt 0
 200 0120 97040000 		ld	s1,.LANCHOR0+16
 200      83B40400 
 201              		.loc 1 51 25
 202 0128 63800402 		beqz	s1,.L9
 203              	.LVL17:
 204              	.LBB29:
 205              	.LBB30:
  13:src/../h/thread.hpp ****             MemoryAllocator::kmem_free(stack);
 206              		.loc 3 13 9 is_stmt 1
  13:src/../h/thread.hpp ****             MemoryAllocator::kmem_free(stack);
 207              		.loc 3 13 12 is_stmt 0
 208 012c 03B50402 		ld	a0,32(s1)
  13:src/../h/thread.hpp ****             MemoryAllocator::kmem_free(stack);
 209              		.loc 3 13 9
 210 0130 63060500 		beqz	a0,.L10
  14:src/../h/thread.hpp ****     }
 211              		.loc 3 14 13 is_stmt 1
  14:src/../h/thread.hpp ****     }
 212              		.loc 3 14 39 is_stmt 0
 213 0134 97000000 		call	_ZN15MemoryAllocator9kmem_freeEPv@plt
 213      E7800000 
 214              	.LVL18:
 215              	.L10:
 216              	.LBE30:
 217              	.LBE29:
 218              	.LBB31:
 219              	.LBB32:
 220              		.loc 3 31 9 is_stmt 1
 221              		.loc 3 31 35 is_stmt 0
 222 013c 13850400 		mv	a0,s1
 223              	.LEHB2:
GAS LISTING /tmp/ccPQOVAC.s 			page 9


 224 0140 97000000 		call	_ZN15MemoryAllocator9kmem_freeEPv@plt
 224      E7800000 
 225              	.LVL19:
 226              	.LEHE2:
 227              	.L9:
 228              	.LBE32:
 229              	.LBE31:
  52:src/main.cpp  ****     delete mainThread;
 230              		.loc 1 52 5 is_stmt 1
 231              		.loc 1 52 12 is_stmt 0
 232 0148 97040000 		ld	s1,.LANCHOR0
 232      83B40400 
 233              		.loc 1 52 22
 234 0150 63800402 		beqz	s1,.L6
 235              	.LVL20:
 236              	.LBB33:
 237              	.LBB34:
  13:src/../h/thread.hpp ****             MemoryAllocator::kmem_free(stack);
 238              		.loc 3 13 9 is_stmt 1
  13:src/../h/thread.hpp ****             MemoryAllocator::kmem_free(stack);
 239              		.loc 3 13 12 is_stmt 0
 240 0154 03B50402 		ld	a0,32(s1)
  13:src/../h/thread.hpp ****             MemoryAllocator::kmem_free(stack);
 241              		.loc 3 13 9
 242 0158 63060500 		beqz	a0,.L12
  14:src/../h/thread.hpp ****     }
 243              		.loc 3 14 13 is_stmt 1
  14:src/../h/thread.hpp ****     }
 244              		.loc 3 14 39 is_stmt 0
 245 015c 97000000 		call	_ZN15MemoryAllocator9kmem_freeEPv@plt
 245      E7800000 
 246              	.LVL21:
 247              	.L12:
 248              	.LBE34:
 249              	.LBE33:
 250              	.LBB35:
 251              	.LBB36:
 252              		.loc 3 31 9 is_stmt 1
 253              		.loc 3 31 35 is_stmt 0
 254 0164 13850400 		mv	a0,s1
 255              	.LEHB3:
 256 0168 97000000 		call	_ZN15MemoryAllocator9kmem_freeEPv@plt
 256      E7800000 
 257              	.LVL22:
 258              	.LEHE3:
 259              	.L6:
 260              	.LBE36:
 261              	.LBE35:
  53:src/main.cpp  **** }
 262              		.loc 1 53 1
 263 0170 83308101 		ld	ra,24(sp)
 264              		.cfi_restore 1
 265 0174 03340101 		ld	s0,16(sp)
 266              		.cfi_restore 8
 267              		.cfi_def_cfa 2, 32
 268 0178 83348100 		ld	s1,8(sp)
 269              		.cfi_restore 9
GAS LISTING /tmp/ccPQOVAC.s 			page 10


 270 017c 13010102 		addi	sp,sp,32
 271              		.cfi_def_cfa_offset 0
 272 0180 67800000 		jr	ra
 273              		.cfi_endproc
 274              	.LFE53:
 275              		.globl	__gxx_personality_v0
 276              		.section	.gcc_except_table,"a",@progbits
 277              	.LLSDA53:
 278 0000 FF       		.byte	0xff
 279 0001 FF       		.byte	0xff
 280 0002 03       		.byte	0x3
 281 0003 34       		.byte	0x34
 282 0004 00000000 		.4byte	.LEHB0-.LFB53
 283 0008 00000000 		.4byte	.LEHE0-.LEHB0
 284 000c 00000000 		.4byte	0
 285 0010 00       		.byte	0
 286 0011 00000000 		.4byte	.LEHB1-.LFB53
 287 0015 00000000 		.4byte	.LEHE1-.LEHB1
 288 0019 00000000 		.4byte	0
 289 001d 00       		.byte	0
 290 001e 00000000 		.4byte	.LEHB2-.LFB53
 291 0022 00000000 		.4byte	.LEHE2-.LEHB2
 292 0026 00000000 		.4byte	0
 293 002a 00       		.byte	0
 294 002b 00000000 		.4byte	.LEHB3-.LFB53
 295 002f 00000000 		.4byte	.LEHE3-.LEHB3
 296 0033 00000000 		.4byte	0
 297 0037 00       		.byte	0
 298              		.text
 300              		.align	2
 301              		.globl	_Z8userMainv
 303              	_Z8userMainv:
 304              	.LFB54:
  54:src/main.cpp  **** 
  55:src/main.cpp  **** void userMain() {
 305              		.loc 1 55 17 is_stmt 1
 306              		.cfi_startproc
 307 0184 130101FF 		addi	sp,sp,-16
 308              		.cfi_def_cfa_offset 16
 309 0188 23348100 		sd	s0,8(sp)
 310              		.cfi_offset 8, -8
 311 018c 13040101 		addi	s0,sp,16
 312              		.cfi_def_cfa 8, 0
  56:src/main.cpp  **** 
  57:src/main.cpp  ****     //Threads_C_API_test(); // zadatak 2., niti C API i sinhrona promena konteksta
  58:src/main.cpp  ****     //Threads_CPP_API_test(); // zadatak 2., niti CPP API i sinhrona promena konteksta
  59:src/main.cpp  **** 
  60:src/main.cpp  ****     //producerConsumer_C_API(); // zadatak 3., kompletan C API sa semaforima, sinhrona promena kont
  61:src/main.cpp  ****     //producerConsumer_CPP_Sync_API(); // zadatak 3., kompletan CPP API sa semaforima, sinhrona pro
  62:src/main.cpp  **** 
  63:src/main.cpp  ****     //testSleeping(); // thread_sleep test C API
  64:src/main.cpp  ****     //ConsumerProducerCPP::testConsumerProducer(); // zadatak 4. CPP API i asinhrona promena kontek
  65:src/main.cpp  **** 
  66:src/main.cpp  **** }
 313              		.loc 1 66 1 is_stmt 0
 314 0190 03348100 		ld	s0,8(sp)
 315              		.cfi_restore 8
GAS LISTING /tmp/ccPQOVAC.s 			page 11


 316              		.cfi_def_cfa 2, 16
 317 0194 13010101 		addi	sp,sp,16
 318              		.cfi_def_cfa_offset 0
 319 0198 67800000 		jr	ra
 320              		.cfi_endproc
 321              	.LFE54:
 323              		.align	2
 324              		.globl	main
 326              	main:
 327              	.LFB55:
  67:src/main.cpp  **** 
  68:src/main.cpp  **** void main() {
 328              		.loc 1 68 13 is_stmt 1
 329              		.cfi_startproc
 330 019c 130101FF 		addi	sp,sp,-16
 331              		.cfi_def_cfa_offset 16
 332 01a0 23341100 		sd	ra,8(sp)
 333 01a4 23308100 		sd	s0,0(sp)
 334              		.cfi_offset 1, -8
 335              		.cfi_offset 8, -16
 336 01a8 13040101 		addi	s0,sp,16
 337              		.cfi_def_cfa 8, 0
  69:src/main.cpp  ****     kernelInit();
 338              		.loc 1 69 5
 339              		.loc 1 69 15 is_stmt 0
 340 01ac 97000000 		call	_Z10kernelInitv
 340      E7800000 
 341              	.LVL23:
  70:src/main.cpp  ****     userMode();
 342              		.loc 1 70 5 is_stmt 1
 343              		.loc 1 70 13 is_stmt 0
 344 01b4 97000000 		call	_Z8userModev@plt
 344      E7800000 
 345              	.LVL24:
  71:src/main.cpp  ****     userMain();
 346              		.loc 1 71 5 is_stmt 1
  72:src/main.cpp  ****     kernelMode();
 347              		.loc 1 72 5
 348              		.loc 1 72 15 is_stmt 0
 349 01bc 97000000 		call	_Z10kernelModev@plt
 349      E7800000 
 350              	.LVL25:
  73:src/main.cpp  ****     dealocate();
 351              		.loc 1 73 5 is_stmt 1
 352              		.loc 1 73 14 is_stmt 0
 353 01c4 97000000 		call	_Z9dealocatev
 353      E7800000 
 354              	.LVL26:
  74:src/main.cpp  **** }...
 355              		.loc 1 74 1
 356 01cc 83308100 		ld	ra,8(sp)
 357              		.cfi_restore 1
 358 01d0 03340100 		ld	s0,0(sp)
 359              		.cfi_restore 8
 360              		.cfi_def_cfa 2, 16
 361 01d4 13010101 		addi	sp,sp,16
 362              		.cfi_def_cfa_offset 0
GAS LISTING /tmp/ccPQOVAC.s 			page 12


 363 01d8 67800000 		jr	ra
 364              		.cfi_endproc
 365              	.LFE55:
 367              		.globl	mainThread
 368              		.globl	consoleThread
 369              		.globl	idle
 370              		.bss
 371              		.align	3
 372              		.set	.LANCHOR0,. + 0
 375              	mainThread:
 376 0000 00000000 		.zero	8
 376      00000000 
 379              	idle:
 380 0008 00000000 		.zero	8
 380      00000000 
 383              	consoleThread:
 384 0010 00000000 		.zero	8
 384      00000000 
 385              		.text
 386              	.Letext0:
 387              		.file 4 "src/../h/../lib/hw.h"
 388              		.file 5 "src/../h/memory.hpp"
 389              		.file 6 "src/../h/syscall_c.hpp"
 2911              		.align	3
 2914              	DW.ref.__gxx_personality_v0:
 2915 0000 00000000 		.dword	__gxx_personality_v0
 2915      00000000 
 2916              		.ident	"GCC: (Ubuntu 9.4.0-1ubuntu1~20.04) 9.4.0"
 2917              		.section	.note.GNU-stack,"",@progbits
GAS LISTING /tmp/ccPQOVAC.s 			page 13

