GAS LISTING /tmp/cccCyR63.s 			page 1


   1              		.file	"scheduler.cpp"
   2              		.option pic
   3              		.option norelax
   4              		.text
   5              	.Ltext0:
   6              		.align	2
   8              	_Z41__static_initialization_and_destruction_0ii:
   9              	.LFB14:
  10              		.file 1 "src/scheduler.cpp"
   1:src/scheduler.cpp **** #include "../h/scheduler.hpp"
   2:src/scheduler.cpp **** 
   3:src/scheduler.cpp **** List<_thread*> Scheduler::readyThreadQueue;
   4:src/scheduler.cpp **** 
   5:src/scheduler.cpp **** _thread* Scheduler::get(){
   6:src/scheduler.cpp ****     return readyThreadQueue.removeFirst();
   7:src/scheduler.cpp **** }
   8:src/scheduler.cpp **** 
   9:src/scheduler.cpp **** void Scheduler::put(_thread*t){
  10:src/scheduler.cpp ****     readyThreadQueue.addLast(t);
  11:src/scheduler.cpp **** }
  11              		.loc 1 11 1
  12              		.cfi_startproc
  13              	.LVL0:
  14 0000 130101FF 		addi	sp,sp,-16
  15              		.cfi_def_cfa_offset 16
  16 0004 23348100 		sd	s0,8(sp)
  17              		.cfi_offset 8, -8
  18 0008 13040101 		addi	s0,sp,16
  19              		.cfi_def_cfa 8, 0
  20              		.loc 1 11 1 is_stmt 0
  21 000c 93071000 		li	a5,1
  22 0010 6308F500 		beq	a0,a5,.L4
  23              	.L1:
  24 0014 03348100 		ld	s0,8(sp)
  25              		.cfi_remember_state
  26              		.cfi_restore 8
  27              		.cfi_def_cfa 2, 16
  28 0018 13010101 		addi	sp,sp,16
  29              		.cfi_def_cfa_offset 0
  30 001c 67800000 		jr	ra
  31              	.L4:
  32              		.cfi_restore_state
  33              		.loc 1 11 1 discriminator 1
  34 0020 B7070100 		li	a5,65536
  35 0024 9387F7FF 		addi	a5,a5,-1
  36 0028 E396F5FE 		bne	a1,a5,.L1
  37              	.LVL1:
  38              	.LBB9:
  39              	.LBB10:
  40              	.LBB11:
  41              		.file 2 "src/../h/list.hpp"
   1:src/../h/list.hpp **** #ifndef PROJECT_BASE_V1_0_LIST_HPP
   2:src/../h/list.hpp **** #define PROJECT_BASE_V1_0_LIST_HPP
   3:src/../h/list.hpp **** #include "memory.hpp"
   4:src/../h/list.hpp **** #include "../lib/console.h"
   5:src/../h/list.hpp **** template<typename T>
   6:src/../h/list.hpp **** class List {
GAS LISTING /tmp/cccCyR63.s 			page 2


   7:src/../h/list.hpp **** private:
   8:src/../h/list.hpp ****     struct Elem {
   9:src/../h/list.hpp ****         Elem* next;
  10:src/../h/list.hpp ****         T data;
  11:src/../h/list.hpp ****     };
  12:src/../h/list.hpp **** 
  13:src/../h/list.hpp **** public:
  14:src/../h/list.hpp ****     Elem* head, *tail;
  15:src/../h/list.hpp **** 
  16:src/../h/list.hpp ****     List() : head(nullptr), tail(nullptr) {}
  42              		.loc 2 16 41
  43 002c 97070000 		lla	a5,.LANCHOR0
  43      93870700 
  44 0034 23B00700 		sd	zero,0(a5)
  45 0038 23B40700 		sd	zero,8(a5)
  46              	.LVL2:
  47              	.LBE11:
  48              	.LBE10:
  49              	.LBE9:
  50              		.loc 1 11 1
  51 003c 6FF09FFD 		j	.L1
  52              		.cfi_endproc
  53              	.LFE14:
  55              		.align	2
  56              		.globl	_ZN9Scheduler3getEv
  58              	_ZN9Scheduler3getEv:
  59              	.LFB7:
   5:src/scheduler.cpp ****     return readyThreadQueue.removeFirst();
  60              		.loc 1 5 26 is_stmt 1
  61              		.cfi_startproc
  62 0040 130101FE 		addi	sp,sp,-32
  63              		.cfi_def_cfa_offset 32
  64 0044 233C1100 		sd	ra,24(sp)
  65 0048 23388100 		sd	s0,16(sp)
  66 004c 23349100 		sd	s1,8(sp)
  67              		.cfi_offset 1, -8
  68              		.cfi_offset 8, -16
  69              		.cfi_offset 9, -24
  70 0050 13040102 		addi	s0,sp,32
  71              		.cfi_def_cfa 8, 0
   6:src/scheduler.cpp **** }
  72              		.loc 1 6 5
  73              	.LVL3:
  74              	.LBB12:
  75              	.LBB13:
  17:src/../h/list.hpp ****     List(const List<T>&) = delete;
  18:src/../h/list.hpp ****     List<T>& operator=(const List<T>&) = delete;
  19:src/../h/list.hpp **** 
  20:src/../h/list.hpp ****     void addFirst(T data) {
  21:src/../h/list.hpp ****         size_t sz = (sizeof(Elem)+sizeof(size_t))/MEM_BLOCK_SIZE + (((sizeof(Elem)+sizeof(size_t))%
  22:src/../h/list.hpp ****         Elem* novi =(Elem*) MemoryAllocator::kmem_alloc(sz);
  23:src/../h/list.hpp ****         novi->data = data; novi->next = head;
  24:src/../h/list.hpp ****         head = novi;
  25:src/../h/list.hpp ****         if (!tail) tail = novi;
  26:src/../h/list.hpp ****     }
  27:src/../h/list.hpp **** 
  28:src/../h/list.hpp ****     void addLast(T data) {
GAS LISTING /tmp/cccCyR63.s 			page 3


  29:src/../h/list.hpp ****         size_t sz = (sizeof(Elem)+sizeof(size_t))/MEM_BLOCK_SIZE + (((sizeof(Elem)+sizeof(size_t))%
  30:src/../h/list.hpp ****         Elem* novi = (Elem*) MemoryAllocator::kmem_alloc(sz);
  31:src/../h/list.hpp ****         novi->data = data; novi->next = nullptr;
  32:src/../h/list.hpp ****         if (tail) {
  33:src/../h/list.hpp ****             tail->next = novi;
  34:src/../h/list.hpp ****             tail = novi;
  35:src/../h/list.hpp ****         }
  36:src/../h/list.hpp ****         else
  37:src/../h/list.hpp ****             head = tail = novi;
  38:src/../h/list.hpp ****     }
  39:src/../h/list.hpp **** 
  40:src/../h/list.hpp ****     T removeFirst() {
  41:src/../h/list.hpp ****         //if (!head) return nullptr;
  42:src/../h/list.hpp ****         if(!head) return 0;
  76              		.loc 2 42 13 is_stmt 0
  77 0054 17050000 		ld	a0,.LANCHOR0
  77      03350500 
  78              		.loc 2 42 9
  79 005c 63020504 		beqz	a0,.L8
  80              	.LVL4:
  43:src/../h/list.hpp ****         Elem* elem = head;
  44:src/../h/list.hpp ****         head = head->next;
  81              		.loc 2 44 22
  82 0060 83370500 		ld	a5,0(a0)
  83              		.loc 2 44 9
  84 0064 17070000 		sd	a5,.LANCHOR0,a4
  84      2330F700 
  45:src/../h/list.hpp ****         if (!head) tail = nullptr;
  85              		.loc 2 45 9
  86 006c 63840702 		beqz	a5,.L10
  87              	.L7:
  46:src/../h/list.hpp ****         T data = elem->data;
  88              		.loc 2 46 11
  89 0070 83348500 		ld	s1,8(a0)
  90              	.LVL5:
  47:src/../h/list.hpp ****         MemoryAllocator::kmem_free(elem);
  91              		.loc 2 47 35
  92 0074 97000000 		call	_ZN15MemoryAllocator9kmem_freeEPv@plt
  92      E7800000 
  93              	.LVL6:
  94              	.L5:
  95              	.LBE13:
  96              	.LBE12:
   7:src/scheduler.cpp **** 
  97              		.loc 1 7 1
  98 007c 13850400 		mv	a0,s1
  99 0080 83308101 		ld	ra,24(sp)
 100              		.cfi_remember_state
 101              		.cfi_restore 1
 102 0084 03340101 		ld	s0,16(sp)
 103              		.cfi_restore 8
 104              		.cfi_def_cfa 2, 32
 105 0088 83348100 		ld	s1,8(sp)
 106              		.cfi_restore 9
 107 008c 13010102 		addi	sp,sp,32
 108              		.cfi_def_cfa_offset 0
 109 0090 67800000 		jr	ra
GAS LISTING /tmp/cccCyR63.s 			page 4


 110              	.LVL7:
 111              	.L10:
 112              		.cfi_restore_state
 113              	.LBB15:
 114              	.LBB14:
  45:src/../h/list.hpp ****         T data = elem->data;
 115              		.loc 2 45 20
 116 0094 97070000 		sd	zero,.LANCHOR0+8,a5
 116      23B00700 
 117 009c 6FF05FFD 		j	.L7
 118              	.LVL8:
 119              	.L8:
  42:src/../h/list.hpp ****         Elem* elem = head;
 120              		.loc 2 42 26
 121 00a0 93040500 		mv	s1,a0
 122              	.LVL9:
 123              	.LBE14:
 124              	.LBE15:
   6:src/scheduler.cpp **** }
 125              		.loc 1 6 41
 126 00a4 6FF09FFD 		j	.L5
 127              		.cfi_endproc
 128              	.LFE7:
 130              		.align	2
 131              		.globl	_ZN9Scheduler3putEP7_thread
 133              	_ZN9Scheduler3putEP7_thread:
 134              	.LFB8:
   9:src/scheduler.cpp ****     readyThreadQueue.addLast(t);
 135              		.loc 1 9 31 is_stmt 1
 136              		.cfi_startproc
 137              	.LVL10:
 138 00a8 130101FE 		addi	sp,sp,-32
 139              		.cfi_def_cfa_offset 32
 140 00ac 233C1100 		sd	ra,24(sp)
 141 00b0 23388100 		sd	s0,16(sp)
 142 00b4 23349100 		sd	s1,8(sp)
 143              		.cfi_offset 1, -8
 144              		.cfi_offset 8, -16
 145              		.cfi_offset 9, -24
 146 00b8 13040102 		addi	s0,sp,32
 147              		.cfi_def_cfa 8, 0
 148 00bc 93040500 		mv	s1,a0
  10:src/scheduler.cpp **** }
 149              		.loc 1 10 5
 150              	.LVL11:
 151              	.LBB16:
 152              	.LBB17:
  30:src/../h/list.hpp ****         novi->data = data; novi->next = nullptr;
 153              		.loc 2 30 57 is_stmt 0
 154 00c0 13051000 		li	a0,1
 155              	.LVL12:
 156 00c4 97000000 		call	_ZN15MemoryAllocator10kmem_allocEm@plt
 156      E7800000 
 157              	.LVL13:
  31:src/../h/list.hpp ****         if (tail) {
 158              		.loc 2 31 9
 159 00cc 23349500 		sd	s1,8(a0)
GAS LISTING /tmp/cccCyR63.s 			page 5


  31:src/../h/list.hpp ****         if (tail) {
 160              		.loc 2 31 28
 161 00d0 23300500 		sd	zero,0(a0)
  32:src/../h/list.hpp ****             tail->next = novi;
 162              		.loc 2 32 13
 163 00d4 97070000 		ld	a5,.LANCHOR0+8
 163      83B70700 
  32:src/../h/list.hpp ****             tail->next = novi;
 164              		.loc 2 32 9
 165 00dc 63820702 		beqz	a5,.L12
  33:src/../h/list.hpp ****             tail = novi;
 166              		.loc 2 33 13
 167 00e0 23B0A700 		sd	a0,0(a5)
  34:src/../h/list.hpp ****         }
 168              		.loc 2 34 13
 169 00e4 97070000 		sd	a0,.LANCHOR0+8,a5
 169      23B0A700 
 170              	.LVL14:
 171              	.L11:
 172              	.LBE17:
 173              	.LBE16:
 174              		.loc 1 11 1
 175 00ec 83308101 		ld	ra,24(sp)
 176              		.cfi_remember_state
 177              		.cfi_restore 1
 178 00f0 03340101 		ld	s0,16(sp)
 179              		.cfi_restore 8
 180              		.cfi_def_cfa 2, 32
 181 00f4 83348100 		ld	s1,8(sp)
 182              		.cfi_restore 9
 183              	.LVL15:
 184 00f8 13010102 		addi	sp,sp,32
 185              		.cfi_def_cfa_offset 0
 186 00fc 67800000 		jr	ra
 187              	.LVL16:
 188              	.L12:
 189              		.cfi_restore_state
 190              	.LBB19:
 191              	.LBB18:
  37:src/../h/list.hpp ****     }
 192              		.loc 2 37 13
 193 0100 97070000 		lla	a5,.LANCHOR0
 193      93870700 
 194 0108 23B4A700 		sd	a0,8(a5)
 195 010c 23B0A700 		sd	a0,0(a5)
 196              	.LVL17:
 197              	.LBE18:
 198              	.LBE19:
 199              		.loc 1 11 1
 200 0110 6FF0DFFD 		j	.L11
 201              		.cfi_endproc
 202              	.LFE8:
 204              		.align	2
 206              	_GLOBAL__sub_I__ZN9Scheduler16readyThreadQueueE:
 207              	.LFB15:
 208              		.loc 1 11 1 is_stmt 1
 209              		.cfi_startproc
GAS LISTING /tmp/cccCyR63.s 			page 6


 210 0114 130101FF 		addi	sp,sp,-16
 211              		.cfi_def_cfa_offset 16
 212 0118 23341100 		sd	ra,8(sp)
 213 011c 23308100 		sd	s0,0(sp)
 214              		.cfi_offset 1, -8
 215              		.cfi_offset 8, -16
 216 0120 13040101 		addi	s0,sp,16
 217              		.cfi_def_cfa 8, 0
 218              		.loc 1 11 1 is_stmt 0
 219 0124 B7050100 		li	a1,65536
 220 0128 9385F5FF 		addi	a1,a1,-1
 221 012c 13051000 		li	a0,1
 222 0130 97000000 		call	_Z41__static_initialization_and_destruction_0ii
 222      E7800000 
 223              	.LVL18:
 224 0138 83308100 		ld	ra,8(sp)
 225              		.cfi_restore 1
 226 013c 03340100 		ld	s0,0(sp)
 227              		.cfi_restore 8
 228              		.cfi_def_cfa 2, 16
 229 0140 13010101 		addi	sp,sp,16
 230              		.cfi_def_cfa_offset 0
 231 0144 67800000 		jr	ra
 232              		.cfi_endproc
 233              	.LFE15:
 235              		.section	.init_array,"aw"
 236              		.align	3
 237 0000 00000000 		.dword	_GLOBAL__sub_I__ZN9Scheduler16readyThreadQueueE
 237      00000000 
 238              		.globl	_ZN9Scheduler16readyThreadQueueE
 239              		.bss
 240              		.align	3
 241              		.set	.LANCHOR0,. + 0
 244              	_ZN9Scheduler16readyThreadQueueE:
 245 0000 00000000 		.zero	16
 245      00000000 
 245      00000000 
 245      00000000 
 246              		.text
 247              	.Letext0:
 248              		.file 3 "src/../h/../lib/hw.h"
 249              		.file 4 "src/../h/memory.hpp"
 250              		.file 5 "src/../h/scheduler.hpp"
 251              		.file 6 "src/../h/syscall_c.hpp"
GAS LISTING /tmp/cccCyR63.s 			page 7

