GAS LISTING /tmp/cczE0Ud2.s 			page 1


   1              		.file	"semaphore.cpp"
   2              		.option pic
   3              		.option norelax
   4              		.text
   5              	.Ltext0:
   6              		.align	2
   7              		.globl	_ZN4_sem5kwaitEPS_
   9              	_ZN4_sem5kwaitEPS_:
  10              	.LFB35:
  11              		.file 1 "src/semaphore.cpp"
   1:src/semaphore.cpp **** #include "../h/semaphore.hpp"
   2:src/semaphore.cpp **** 
   3:src/semaphore.cpp **** int _sem::kwait(sem_t id){
  12              		.loc 1 3 26
  13              		.cfi_startproc
  14              	.LVL0:
  15 0000 130101FE 		addi	sp,sp,-32
  16              		.cfi_def_cfa_offset 32
  17 0004 233C1100 		sd	ra,24(sp)
  18 0008 23388100 		sd	s0,16(sp)
  19 000c 23349100 		sd	s1,8(sp)
  20 0010 23302101 		sd	s2,0(sp)
  21              		.cfi_offset 1, -8
  22              		.cfi_offset 8, -16
  23              		.cfi_offset 9, -24
  24              		.cfi_offset 18, -32
  25 0014 13040102 		addi	s0,sp,32
  26              		.cfi_def_cfa 8, 0
  27 0018 93040500 		mv	s1,a0
   4:src/semaphore.cpp ****     id->value--;
  28              		.loc 1 4 5
  29              		.loc 1 4 9 is_stmt 0
  30 001c 83270500 		lw	a5,0(a0)
  31              		.loc 1 4 14
  32 0020 9B87F7FF 		addiw	a5,a5,-1
  33 0024 2320F500 		sw	a5,0(a0)
   5:src/semaphore.cpp ****     if(id->value<0){
  34              		.loc 1 5 5 is_stmt 1
  35 0028 13970702 		slli	a4,a5,32
  36 002c 63440702 		bltz	a4,.L8
  37              	.LVL1:
  38              	.L2:
   6:src/semaphore.cpp ****         id->SemaforQueue.addLast(_thread::running);
   7:src/semaphore.cpp ****         _thread::setTimeSliceCounter();
   8:src/semaphore.cpp ****         _thread::kdispatch(1);
   9:src/semaphore.cpp ****     }
  10:src/semaphore.cpp ****     if(id->sem_exists==0) return -1;
  39              		.loc 1 10 5
  40              		.loc 1 10 12 is_stmt 0
  41 0030 83A78401 		lw	a5,24(s1)
  42              		.loc 1 10 5
  43 0034 638C0706 		beqz	a5,.L9
  11:src/semaphore.cpp ****     else return 0;
  44              		.loc 1 11 17
  45 0038 13050000 		li	a0,0
  46              	.L5:
  12:src/semaphore.cpp **** }
GAS LISTING /tmp/cczE0Ud2.s 			page 2


  47              		.loc 1 12 1
  48 003c 83308101 		ld	ra,24(sp)
  49              		.cfi_remember_state
  50              		.cfi_restore 1
  51 0040 03340101 		ld	s0,16(sp)
  52              		.cfi_restore 8
  53              		.cfi_def_cfa 2, 32
  54 0044 83348100 		ld	s1,8(sp)
  55              		.cfi_restore 9
  56              	.LVL2:
  57 0048 03390100 		ld	s2,0(sp)
  58              		.cfi_restore 18
  59 004c 13010102 		addi	sp,sp,32
  60              		.cfi_def_cfa_offset 0
  61 0050 67800000 		jr	ra
  62              	.LVL3:
  63              	.L8:
  64              		.cfi_restore_state
   6:src/semaphore.cpp ****         id->SemaforQueue.addLast(_thread::running);
  65              		.loc 1 6 9 is_stmt 1
   6:src/semaphore.cpp ****         id->SemaforQueue.addLast(_thread::running);
  66              		.loc 1 6 33 is_stmt 0
  67 0054 97070000 		la	a5,_ZN7_thread7runningE
  67      83B70700 
  68 005c 03B90700 		ld	s2,0(a5)
  69              	.LVL4:
  70              	.LBB14:
  71              	.LBB15:
  72              		.file 2 "src/../h/../h/list.hpp"
   1:src/../h/../h/list.hpp **** #ifndef PROJECT_BASE_V1_0_LIST_HPP
   2:src/../h/../h/list.hpp **** #define PROJECT_BASE_V1_0_LIST_HPP
   3:src/../h/../h/list.hpp **** #include "memory.hpp"
   4:src/../h/../h/list.hpp **** #include "../lib/console.h"
   5:src/../h/../h/list.hpp **** template<typename T>
   6:src/../h/../h/list.hpp **** class List {
   7:src/../h/../h/list.hpp **** private:
   8:src/../h/../h/list.hpp ****     struct Elem {
   9:src/../h/../h/list.hpp ****         Elem* next;
  10:src/../h/../h/list.hpp ****         T data;
  11:src/../h/../h/list.hpp ****     };
  12:src/../h/../h/list.hpp **** 
  13:src/../h/../h/list.hpp **** public:
  14:src/../h/../h/list.hpp ****     Elem* head, *tail;
  15:src/../h/../h/list.hpp **** 
  16:src/../h/../h/list.hpp ****     List() : head(nullptr), tail(nullptr) {}
  17:src/../h/../h/list.hpp ****     List(const List<T>&) = delete;
  18:src/../h/../h/list.hpp ****     List<T>& operator=(const List<T>&) = delete;
  19:src/../h/../h/list.hpp **** 
  20:src/../h/../h/list.hpp ****     void addFirst(T data) {
  21:src/../h/../h/list.hpp ****         size_t sz = (sizeof(Elem)+sizeof(size_t))/MEM_BLOCK_SIZE + (((sizeof(Elem)+sizeof(size_t))%
  22:src/../h/../h/list.hpp ****         Elem* novi =(Elem*) MemoryAllocator::kmem_alloc(sz);
  23:src/../h/../h/list.hpp ****         novi->data = data; novi->next = head;
  24:src/../h/../h/list.hpp ****         head = novi;
  25:src/../h/../h/list.hpp ****         if (!tail) tail = novi;
  26:src/../h/../h/list.hpp ****     }
  27:src/../h/../h/list.hpp **** 
  28:src/../h/../h/list.hpp ****     void addLast(T data) {
GAS LISTING /tmp/cczE0Ud2.s 			page 3


  29:src/../h/../h/list.hpp ****         size_t sz = (sizeof(Elem)+sizeof(size_t))/MEM_BLOCK_SIZE + (((sizeof(Elem)+sizeof(size_t))%
  30:src/../h/../h/list.hpp ****         Elem* novi = (Elem*) MemoryAllocator::kmem_alloc(sz);
  73              		.loc 2 30 57
  74 0060 13051000 		li	a0,1
  75 0064 97000000 		call	_ZN15MemoryAllocator10kmem_allocEm@plt
  75      E7800000 
  76              	.LVL5:
  31:src/../h/../h/list.hpp ****         novi->data = data; novi->next = nullptr;
  77              		.loc 2 31 9
  78 006c 23342501 		sd	s2,8(a0)
  79              		.loc 2 31 28
  80 0070 23300500 		sd	zero,0(a0)
  32:src/../h/../h/list.hpp ****         if (tail) {
  81              		.loc 2 32 13
  82 0074 83B70401 		ld	a5,16(s1)
  83              		.loc 2 32 9
  84 0078 63840702 		beqz	a5,.L3
  33:src/../h/../h/list.hpp ****             tail->next = novi;
  85              		.loc 2 33 13
  86 007c 23B0A700 		sd	a0,0(a5)
  34:src/../h/../h/list.hpp ****             tail = novi;
  87              		.loc 2 34 13
  88 0080 23B8A400 		sd	a0,16(s1)
  89              	.L4:
  90              	.LVL6:
  91              	.LBE15:
  92              	.LBE14:
   7:src/semaphore.cpp ****         _thread::kdispatch(1);
  93              		.loc 1 7 9 is_stmt 1
  94              	.LBB17:
  95              	.LBB18:
  96              		.file 3 "src/../h/../h/thread.hpp"
   1:src/../h/../h/thread.hpp **** #ifndef PROJECT_BASE_V1_0_THREAD_HPP
   2:src/../h/../h/thread.hpp **** #define PROJECT_BASE_V1_0_THREAD_HPP
   3:src/../h/../h/thread.hpp **** #include "../lib/hw.h"
   4:src/../h/../h/thread.hpp **** #include "../h/scheduler.hpp"
   5:src/../h/../h/thread.hpp **** #include "../h/riscV.hpp"
   6:src/../h/../h/thread.hpp **** #include "../h/syscall_c.hpp"
   7:src/../h/../h/thread.hpp **** #include "../h/sleepQueue.hpp"
   8:src/../h/../h/thread.hpp **** #include "../h/memory.hpp"
   9:src/../h/../h/thread.hpp **** 
  10:src/../h/../h/thread.hpp **** class _thread {
  11:src/../h/../h/thread.hpp **** public:
  12:src/../h/../h/thread.hpp ****     ~_thread() {
  13:src/../h/../h/thread.hpp ****         if(stack)
  14:src/../h/../h/thread.hpp ****             MemoryAllocator::kmem_free(stack);
  15:src/../h/../h/thread.hpp ****     }
  16:src/../h/../h/thread.hpp ****     bool isFinished() const { return finished; }
  17:src/../h/../h/thread.hpp ****     void setFinished(bool value) { finished = value; }
  18:src/../h/../h/thread.hpp ****     uint64 getTimeSlice() const { return timeSlice; }
  19:src/../h/../h/thread.hpp ****     uint64 getTimeToSleep() const { return timeToSleep; }
  20:src/../h/../h/thread.hpp ****     void decTimeToSleep() { timeToSleep--; }
  21:src/../h/../h/thread.hpp ****     using Body = void (*)(void*);
  22:src/../h/../h/thread.hpp ****     static int createThread(thread_t* handle, Body body, void*arg, uint64*stek, int flag);
  23:src/../h/../h/thread.hpp ****     static _thread *running;
  24:src/../h/../h/thread.hpp ****     static void kdispatch(int flag);
  25:src/../h/../h/thread.hpp ****     static void threadWrapper();
GAS LISTING /tmp/cczE0Ud2.s 			page 4


  26:src/../h/../h/thread.hpp ****     static int sleep(time_t time);
  27:src/../h/../h/thread.hpp ****     static void addToScheduler(thread_t);
  28:src/../h/../h/thread.hpp ****     static void setTimeSliceCounter(){ timeSliceCounter = 0; }
  97              		.loc 3 28 40
  98              		.loc 3 28 57 is_stmt 0
  99 0084 97070000 		la	a5,_ZN7_thread16timeSliceCounterE
  99      83B70700 
 100 008c 23B00700 		sd	zero,0(a5)
 101              	.LBE18:
 102              	.LBE17:
   8:src/semaphore.cpp ****     }
 103              		.loc 1 8 9 is_stmt 1
   8:src/semaphore.cpp ****     }
 104              		.loc 1 8 27 is_stmt 0
 105 0090 13051000 		li	a0,1
 106              	.LVL7:
 107 0094 97000000 		call	_ZN7_thread9kdispatchEi@plt
 107      E7800000 
 108              	.LVL8:
 109 009c 6FF05FF9 		j	.L2
 110              	.LVL9:
 111              	.L3:
 112              	.LBB19:
 113              	.LBB16:
  35:src/../h/../h/list.hpp ****         }
  36:src/../h/../h/list.hpp ****         else
  37:src/../h/../h/list.hpp ****             head = tail = novi;
 114              		.loc 2 37 13
 115 00a0 23B8A400 		sd	a0,16(s1)
 116 00a4 23B4A400 		sd	a0,8(s1)
 117 00a8 6FF0DFFD 		j	.L4
 118              	.LVL10:
 119              	.L9:
 120              	.LBE16:
 121              	.LBE19:
  10:src/semaphore.cpp ****     else return 0;
 122              		.loc 1 10 35
 123 00ac 1305F0FF 		li	a0,-1
 124 00b0 6FF0DFF8 		j	.L5
 125              		.cfi_endproc
 126              	.LFE35:
 128              		.align	2
 129              		.globl	_ZN4_sem7ksignalEPS_
 131              	_ZN4_sem7ksignalEPS_:
 132              	.LFB36:
  13:src/semaphore.cpp **** int _sem::ksignal(sem_t id){
 133              		.loc 1 13 28 is_stmt 1
 134              		.cfi_startproc
 135              	.LVL11:
  14:src/semaphore.cpp ****     id->value++;
 136              		.loc 1 14 5
 137              		.loc 1 14 9 is_stmt 0
 138 00b4 03270500 		lw	a4,0(a0)
 139              		.loc 1 14 14
 140 00b8 1B071700 		addiw	a4,a4,1
 141 00bc 9B060700 		sext.w	a3,a4
 142 00c0 2320E500 		sw	a4,0(a0)
GAS LISTING /tmp/cczE0Ud2.s 			page 5


  15:src/semaphore.cpp ****     if(id->value<=0){
 143              		.loc 1 15 5 is_stmt 1
 144              	.LBB20:
 145 00c4 6356D000 		blez	a3,.L21
 146              	.LBE20:
  16:src/semaphore.cpp ****         _thread* t = id->SemaforQueue.removeFirst();
  17:src/semaphore.cpp ****         if(t == nullptr) return -1;
  18:src/semaphore.cpp ****         Scheduler::put(t);
  19:src/semaphore.cpp ****     }
  20:src/semaphore.cpp ****     return 0;
 147              		.loc 1 20 12 is_stmt 0
 148 00c8 13050000 		li	a0,0
 149              	.LVL12:
 150 00cc 67800000 		ret
 151              	.LVL13:
 152              	.L21:
 153 00d0 93070500 		mv	a5,a0
 154              	.LBB30:
 155              	.LBB21:
  16:src/semaphore.cpp ****         _thread* t = id->SemaforQueue.removeFirst();
 156              		.loc 1 16 9 is_stmt 1
 157              	.LVL14:
 158              	.LBB22:
 159              	.LBB23:
  38:src/../h/../h/list.hpp ****     }
  39:src/../h/../h/list.hpp **** 
  40:src/../h/../h/list.hpp ****     T removeFirst() {
  41:src/../h/../h/list.hpp ****         //if (!head) return nullptr;
  42:src/../h/../h/list.hpp ****         if(!head) return 0;
 160              		.loc 2 42 13 is_stmt 0
 161 00d4 03358500 		ld	a0,8(a0)
 162              	.LVL15:
 163              		.loc 2 42 9
 164 00d8 63040506 		beqz	a0,.L17
 165              	.LBE23:
 166              	.LBE22:
 167              	.LBE21:
 168              	.LBE30:
  13:src/semaphore.cpp ****     id->value++;
 169              		.loc 1 13 28
 170 00dc 130101FE 		addi	sp,sp,-32
 171              		.cfi_def_cfa_offset 32
 172 00e0 233C1100 		sd	ra,24(sp)
 173 00e4 23388100 		sd	s0,16(sp)
 174 00e8 23349100 		sd	s1,8(sp)
 175              		.cfi_offset 1, -8
 176              		.cfi_offset 8, -16
 177              		.cfi_offset 9, -24
 178 00ec 13040102 		addi	s0,sp,32
 179              		.cfi_def_cfa 8, 0
 180              	.LVL16:
 181              	.LBB31:
 182              	.LBB28:
 183              	.LBB26:
 184              	.LBB24:
  43:src/../h/../h/list.hpp ****         Elem* elem = head;
  44:src/../h/../h/list.hpp ****         head = head->next;
GAS LISTING /tmp/cczE0Ud2.s 			page 6


 185              		.loc 2 44 22
 186 00f0 03370500 		ld	a4,0(a0)
 187              		.loc 2 44 9
 188 00f4 23B4E700 		sd	a4,8(a5)
  45:src/../h/../h/list.hpp ****         if (!head) tail = nullptr;
 189              		.loc 2 45 9
 190 00f8 630C0702 		beqz	a4,.L22
 191              	.L13:
  46:src/../h/../h/list.hpp ****         T data = elem->data;
 192              		.loc 2 46 11
 193 00fc 83348500 		ld	s1,8(a0)
 194              	.LVL17:
  47:src/../h/../h/list.hpp ****         MemoryAllocator::kmem_free(elem);
 195              		.loc 2 47 35
 196 0100 97000000 		call	_ZN15MemoryAllocator9kmem_freeEPv@plt
 196      E7800000 
 197              	.LVL18:
 198              	.LBE24:
 199              	.LBE26:
  17:src/semaphore.cpp ****         Scheduler::put(t);
 200              		.loc 1 17 9 is_stmt 1
 201 0108 63880402 		beqz	s1,.L23
  18:src/semaphore.cpp ****     }
 202              		.loc 1 18 9
  18:src/semaphore.cpp ****     }
 203              		.loc 1 18 23 is_stmt 0
 204 010c 13850400 		mv	a0,s1
 205 0110 97000000 		call	_ZN9Scheduler3putEP7_thread@plt
 205      E7800000 
 206              	.LVL19:
 207              	.LBE28:
 208              	.LBE31:
 209              		.loc 1 20 12
 210 0118 13050000 		li	a0,0
 211              	.LVL20:
 212              	.L11:
  21:src/semaphore.cpp **** }
 213              		.loc 1 21 1
 214 011c 83308101 		ld	ra,24(sp)
 215              		.cfi_remember_state
 216              		.cfi_restore 1
 217 0120 03340101 		ld	s0,16(sp)
 218              		.cfi_restore 8
 219              		.cfi_def_cfa 2, 32
 220 0124 83348100 		ld	s1,8(sp)
 221              		.cfi_restore 9
 222 0128 13010102 		addi	sp,sp,32
 223              		.cfi_def_cfa_offset 0
 224 012c 67800000 		jr	ra
 225              	.LVL21:
 226              	.L22:
 227              		.cfi_restore_state
 228              	.LBB32:
 229              	.LBB29:
 230              	.LBB27:
 231              	.LBB25:
  45:src/../h/../h/list.hpp ****         T data = elem->data;
GAS LISTING /tmp/cczE0Ud2.s 			page 7


 232              		.loc 2 45 20
 233 0130 23B80700 		sd	zero,16(a5)
 234 0134 6FF09FFC 		j	.L13
 235              	.LVL22:
 236              	.L23:
 237              	.LBE25:
 238              	.LBE27:
  17:src/semaphore.cpp ****         Scheduler::put(t);
 239              		.loc 1 17 26 is_stmt 1 discriminator 1
  17:src/semaphore.cpp ****         Scheduler::put(t);
 240              		.loc 1 17 34 is_stmt 0 discriminator 1
 241 0138 1305F0FF 		li	a0,-1
 242 013c 6FF01FFE 		j	.L11
 243              	.LVL23:
 244              	.L17:
 245              		.cfi_def_cfa_register 2
 246              		.cfi_restore 1
 247              		.cfi_restore 8
 248              		.cfi_restore 9
  17:src/semaphore.cpp ****         Scheduler::put(t);
 249              		.loc 1 17 26 is_stmt 1
  17:src/semaphore.cpp ****         Scheduler::put(t);
 250              		.loc 1 17 34 is_stmt 0
 251 0140 1305F0FF 		li	a0,-1
 252              	.LBE29:
 253              	.LBE32:
 254              		.loc 1 21 1
 255 0144 67800000 		ret
 256              		.cfi_endproc
 257              	.LFE36:
 259              		.align	2
 260              		.globl	_ZN4_sem9ksem_openEPPS_j
 262              	_ZN4_sem9ksem_openEPPS_j:
 263              	.LFB37:
  22:src/semaphore.cpp **** 
  23:src/semaphore.cpp **** int _sem::ksem_open(sem_t *handle, unsigned init) {
 264              		.loc 1 23 51 is_stmt 1
 265              		.cfi_startproc
 266              	.LVL24:
 267 0148 130101FE 		addi	sp,sp,-32
 268              		.cfi_def_cfa_offset 32
 269 014c 233C1100 		sd	ra,24(sp)
 270 0150 23388100 		sd	s0,16(sp)
 271 0154 23349100 		sd	s1,8(sp)
 272 0158 23302101 		sd	s2,0(sp)
 273              		.cfi_offset 1, -8
 274              		.cfi_offset 8, -16
 275              		.cfi_offset 9, -24
 276              		.cfi_offset 18, -32
 277 015c 13040102 		addi	s0,sp,32
 278              		.cfi_def_cfa 8, 0
 279 0160 93040500 		mv	s1,a0
 280 0164 13890500 		mv	s2,a1
  24:src/semaphore.cpp ****     size_t sz = (sizeof(_sem)+sizeof(size_t))/MEM_BLOCK_SIZE + (((sizeof(_sem)+sizeof(size_t))%MEM_
 281              		.loc 1 24 5
 282              	.LVL25:
  25:src/semaphore.cpp ****     sem_t sem = (sem_t)(MemoryAllocator::kmem_alloc(sz));
GAS LISTING /tmp/cczE0Ud2.s 			page 8


 283              		.loc 1 25 5
 284              		.loc 1 25 52 is_stmt 0
 285 0168 13051000 		li	a0,1
 286              	.LVL26:
 287 016c 97000000 		call	_ZN15MemoryAllocator10kmem_allocEm@plt
 287      E7800000 
 288              	.LVL27:
  26:src/semaphore.cpp ****     if(sem == nullptr) return -1;
 289              		.loc 1 26 5 is_stmt 1
 290 0174 630C0502 		beqz	a0,.L26
  27:src/semaphore.cpp ****     sem->SemaforQueue.head= nullptr;
 291              		.loc 1 27 5
 292              		.loc 1 27 27 is_stmt 0
 293 0178 23340500 		sd	zero,8(a0)
  28:src/semaphore.cpp ****     sem->SemaforQueue.tail= nullptr;
 294              		.loc 1 28 5 is_stmt 1
 295              		.loc 1 28 27 is_stmt 0
 296 017c 23380500 		sd	zero,16(a0)
  29:src/semaphore.cpp ****     sem->value = init;
 297              		.loc 1 29 5 is_stmt 1
 298              		.loc 1 29 16 is_stmt 0
 299 0180 23202501 		sw	s2,0(a0)
  30:src/semaphore.cpp ****     sem->sem_exists = 1;
 300              		.loc 1 30 5 is_stmt 1
 301              		.loc 1 30 21 is_stmt 0
 302 0184 93071000 		li	a5,1
 303 0188 232CF500 		sw	a5,24(a0)
  31:src/semaphore.cpp ****     *handle = sem;
 304              		.loc 1 31 5 is_stmt 1
 305              		.loc 1 31 13 is_stmt 0
 306 018c 23B0A400 		sd	a0,0(s1)
  32:src/semaphore.cpp ****     return 0;
 307              		.loc 1 32 5 is_stmt 1
 308              		.loc 1 32 12 is_stmt 0
 309 0190 13050000 		li	a0,0
 310              	.LVL28:
 311              	.L25:
  33:src/semaphore.cpp **** }
 312              		.loc 1 33 1
 313 0194 83308101 		ld	ra,24(sp)
 314              		.cfi_remember_state
 315              		.cfi_restore 1
 316 0198 03340101 		ld	s0,16(sp)
 317              		.cfi_restore 8
 318              		.cfi_def_cfa 2, 32
 319 019c 83348100 		ld	s1,8(sp)
 320              		.cfi_restore 9
 321              	.LVL29:
 322 01a0 03390100 		ld	s2,0(sp)
 323              		.cfi_restore 18
 324 01a4 13010102 		addi	sp,sp,32
 325              		.cfi_def_cfa_offset 0
 326 01a8 67800000 		jr	ra
 327              	.LVL30:
 328              	.L26:
 329              		.cfi_restore_state
  26:src/semaphore.cpp ****     sem->SemaforQueue.head= nullptr;
GAS LISTING /tmp/cczE0Ud2.s 			page 9


 330              		.loc 1 26 32
 331 01ac 1305F0FF 		li	a0,-1
 332              	.LVL31:
 333 01b0 6FF05FFE 		j	.L25
 334              		.cfi_endproc
 335              	.LFE37:
 337              		.align	2
 338              		.globl	_ZN4_sem10ksem_closeEPS_
 340              	_ZN4_sem10ksem_closeEPS_:
 341              	.LFB38:
  34:src/semaphore.cpp **** 
  35:src/semaphore.cpp **** int _sem::ksem_close(sem_t handle) {
 342              		.loc 1 35 36 is_stmt 1
 343              		.cfi_startproc
 344              	.LVL32:
 345 01b4 130101FE 		addi	sp,sp,-32
 346              		.cfi_def_cfa_offset 32
 347 01b8 233C1100 		sd	ra,24(sp)
 348 01bc 23388100 		sd	s0,16(sp)
 349 01c0 23349100 		sd	s1,8(sp)
 350              		.cfi_offset 1, -8
 351              		.cfi_offset 8, -16
 352              		.cfi_offset 9, -24
 353 01c4 13040102 		addi	s0,sp,32
 354              		.cfi_def_cfa 8, 0
 355 01c8 93040500 		mv	s1,a0
  36:src/semaphore.cpp ****     _thread* t = handle->SemaforQueue.peekFirst();
 356              		.loc 1 36 5
 357              	.LVL33:
 358              	.LBB39:
 359              	.LBB40:
  48:src/../h/../h/list.hpp ****         //delete elem;
  49:src/../h/../h/list.hpp ****         return data;
  50:src/../h/../h/list.hpp ****     }
  51:src/../h/../h/list.hpp **** 
  52:src/../h/../h/list.hpp ****     T removeLast() {
  53:src/../h/../h/list.hpp ****         //if (!head) return nullptr;
  54:src/../h/../h/list.hpp ****         if(!head) return nullptr;
  55:src/../h/../h/list.hpp ****         Elem* prev = nullptr;
  56:src/../h/../h/list.hpp ****         for (Elem* curr = head; curr && curr != tail; curr = curr->next) prev = curr;
  57:src/../h/../h/list.hpp ****         Elem* elem = tail;
  58:src/../h/../h/list.hpp ****         if (prev) prev->next = nullptr;
  59:src/../h/../h/list.hpp ****         else head = nullptr;
  60:src/../h/../h/list.hpp ****         tail = prev;
  61:src/../h/../h/list.hpp ****         T* data = elem->data;
  62:src/../h/../h/list.hpp ****         MemoryAllocator::kmem_free(elem);
  63:src/../h/../h/list.hpp ****         return data;
  64:src/../h/../h/list.hpp ****     }
  65:src/../h/../h/list.hpp **** 
  66:src/../h/../h/list.hpp ****     T peekFirst() {
  67:src/../h/../h/list.hpp ****         if (!head) return nullptr;
 360              		.loc 2 67 14 is_stmt 0
 361 01cc 03358500 		ld	a0,8(a0)
 362              	.LVL34:
 363              		.loc 2 67 9
 364 01d0 63020502 		beqz	a0,.L33
  68:src/../h/../h/list.hpp ****         return head->data;
GAS LISTING /tmp/cczE0Ud2.s 			page 10


 365              		.loc 2 68 22
 366 01d4 03358500 		ld	a0,8(a0)
 367 01d8 6F00C001 		j	.L33
 368              	.LVL35:
 369              	.L35:
 370              	.LBE40:
 371              	.LBE39:
 372              	.LBB41:
 373              	.LBB42:
  45:src/../h/../h/list.hpp ****         T data = elem->data;
 374              		.loc 2 45 20
 375 01dc 23B80400 		sd	zero,16(s1)
 376              	.L32:
 377              	.LVL36:
  47:src/../h/../h/list.hpp ****         //delete elem;
 378              		.loc 2 47 35
 379 01e0 97000000 		call	_ZN15MemoryAllocator9kmem_freeEPv@plt
 379      E7800000 
 380              	.LVL37:
 381              	.L31:
 382              	.LBE42:
 383              	.LBE41:
  37:src/semaphore.cpp ****     while(t != nullptr){
  38:src/semaphore.cpp ****         Scheduler::put(t);
  39:src/semaphore.cpp ****         handle->SemaforQueue.removeFirst();
  40:src/semaphore.cpp ****         t = handle->SemaforQueue.peekFirst();
 384              		.loc 1 40 9 is_stmt 1
 385              	.LBB44:
 386              	.LBB45:
  67:src/../h/../h/list.hpp ****         return head->data;
 387              		.loc 2 67 14 is_stmt 0
 388 01e8 83B78400 		ld	a5,8(s1)
  67:src/../h/../h/list.hpp ****         return head->data;
 389              		.loc 2 67 9
 390 01ec 63860702 		beqz	a5,.L30
 391              		.loc 2 68 22
 392 01f0 03B58700 		ld	a0,8(a5)
 393              	.LVL38:
 394              	.L33:
 395              	.LBE45:
 396              	.LBE44:
  37:src/semaphore.cpp ****     while(t != nullptr){
 397              		.loc 1 37 5 is_stmt 1
  37:src/semaphore.cpp ****     while(t != nullptr){
 398              		.loc 1 37 13
 399 01f4 63020502 		beqz	a0,.L30
  38:src/semaphore.cpp ****         handle->SemaforQueue.removeFirst();
 400              		.loc 1 38 9
  38:src/semaphore.cpp ****         handle->SemaforQueue.removeFirst();
 401              		.loc 1 38 23 is_stmt 0
 402 01f8 97000000 		call	_ZN9Scheduler3putEP7_thread@plt
 402      E7800000 
 403              	.LVL39:
  39:src/semaphore.cpp ****         t = handle->SemaforQueue.peekFirst();
 404              		.loc 1 39 9 is_stmt 1
 405              	.LBB46:
 406              	.LBB43:
GAS LISTING /tmp/cczE0Ud2.s 			page 11


  42:src/../h/../h/list.hpp ****         Elem* elem = head;
 407              		.loc 2 42 13 is_stmt 0
 408 0200 03B58400 		ld	a0,8(s1)
  42:src/../h/../h/list.hpp ****         Elem* elem = head;
 409              		.loc 2 42 9
 410 0204 E30205FE 		beqz	a0,.L31
 411              	.LVL40:
  44:src/../h/../h/list.hpp ****         if (!head) tail = nullptr;
 412              		.loc 2 44 22
 413 0208 83370500 		ld	a5,0(a0)
  44:src/../h/../h/list.hpp ****         if (!head) tail = nullptr;
 414              		.loc 2 44 9
 415 020c 23B4F400 		sd	a5,8(s1)
  45:src/../h/../h/list.hpp ****         T data = elem->data;
 416              		.loc 2 45 9
 417 0210 E39807FC 		bnez	a5,.L32
 418 0214 6FF09FFC 		j	.L35
 419              	.LVL41:
 420              	.L30:
 421              	.LBE43:
 422              	.LBE46:
  41:src/semaphore.cpp ****     }
  42:src/semaphore.cpp ****     handle->sem_exists=0;
 423              		.loc 1 42 5 is_stmt 1
 424              		.loc 1 42 23 is_stmt 0
 425 0218 23AC0400 		sw	zero,24(s1)
  43:src/semaphore.cpp ****     return 0;
 426              		.loc 1 43 5 is_stmt 1
  44:src/semaphore.cpp **** }...
 427              		.loc 1 44 1 is_stmt 0
 428 021c 13050000 		li	a0,0
 429 0220 83308101 		ld	ra,24(sp)
 430              		.cfi_restore 1
 431 0224 03340101 		ld	s0,16(sp)
 432              		.cfi_restore 8
 433              		.cfi_def_cfa 2, 32
 434 0228 83348100 		ld	s1,8(sp)
 435              		.cfi_restore 9
 436              	.LVL42:
 437 022c 13010102 		addi	sp,sp,32
 438              		.cfi_def_cfa_offset 0
 439 0230 67800000 		jr	ra
 440              		.cfi_endproc
 441              	.LFE38:
 443              	.Letext0:
 444              		.file 4 "src/../h/../h/../lib/hw.h"
 445              		.file 5 "src/../h/../h/syscall_c.hpp"
 446              		.file 6 "src/../h/semaphore.hpp"
 447              		.file 7 "src/../h/../h/memory.hpp"
 448              		.file 8 "src/../h/../h/../h/scheduler.hpp"
GAS LISTING /tmp/cczE0Ud2.s 			page 12

