GAS LISTING /tmp/ccUUGZ91.s 			page 1


   1              		.file	"sleepQueue.cpp"
   2              		.option pic
   3              		.option norelax
   4              		.text
   5              	.Ltext0:
   6              		.align	2
   7              		.globl	_ZN10sleepQueue3putEP7_thread
   9              	_ZN10sleepQueue3putEP7_thread:
  10              	.LFB34:
  11              		.file 1 "src/sleepQueue.cpp"
   1:src/sleepQueue.cpp **** #include "../h/sleepQueue.hpp"
   2:src/sleepQueue.cpp **** 
   3:src/sleepQueue.cpp **** sleepQueue::Elem *sleepQueue::head = nullptr;
   4:src/sleepQueue.cpp **** sleepQueue::Elem *sleepQueue::tail = nullptr;
   5:src/sleepQueue.cpp **** 
   6:src/sleepQueue.cpp **** 
   7:src/sleepQueue.cpp **** void sleepQueue::put(_thread*t){
  12              		.loc 1 7 32
  13              		.cfi_startproc
  14              	.LVL0:
  15 0000 130101FE 		addi	sp,sp,-32
  16              		.cfi_def_cfa_offset 32
  17 0004 233C1100 		sd	ra,24(sp)
  18 0008 23388100 		sd	s0,16(sp)
  19 000c 23349100 		sd	s1,8(sp)
  20              		.cfi_offset 1, -8
  21              		.cfi_offset 8, -16
  22              		.cfi_offset 9, -24
  23 0010 13040102 		addi	s0,sp,32
  24              		.cfi_def_cfa 8, 0
  25 0014 93040500 		mv	s1,a0
   8:src/sleepQueue.cpp ****     size_t sz = (sizeof(Elem)+sizeof(size_t))/MEM_BLOCK_SIZE + (((sizeof(Elem)+sizeof(size_t))%MEM_
  26              		.loc 1 8 5
  27              	.LVL1:
   9:src/sleepQueue.cpp ****     Elem* novi =(Elem*) MemoryAllocator::kmem_alloc(sz);
  28              		.loc 1 9 5
  29              		.loc 1 9 52 is_stmt 0
  30 0018 13051000 		li	a0,1
  31              	.LVL2:
  32 001c 97000000 		call	_ZN15MemoryAllocator10kmem_allocEm@plt
  32      E7800000 
  33              	.LVL3:
  10:src/sleepQueue.cpp ****     novi->thread = t; novi->next = nullptr;
  34              		.loc 1 10 5 is_stmt 1
  35              		.loc 1 10 18 is_stmt 0
  36 0024 23349500 		sd	s1,8(a0)
  37              		.loc 1 10 23 is_stmt 1
  38              		.loc 1 10 34 is_stmt 0
  39 0028 23300500 		sd	zero,0(a0)
  11:src/sleepQueue.cpp ****     if (tail) {
  40              		.loc 1 11 5 is_stmt 1
  41              		.loc 1 11 13 is_stmt 0
  42 002c 97070000 		ld	a5,.LANCHOR0
  42      83B70700 
  43              		.loc 1 11 5
  44 0034 63820702 		beqz	a5,.L2
  12:src/sleepQueue.cpp ****         tail->next = novi;
GAS LISTING /tmp/ccUUGZ91.s 			page 2


  45              		.loc 1 12 9 is_stmt 1
  46              		.loc 1 12 20 is_stmt 0
  47 0038 23B0A700 		sd	a0,0(a5)
  13:src/sleepQueue.cpp ****         tail = novi;
  48              		.loc 1 13 9 is_stmt 1
  49              		.loc 1 13 14 is_stmt 0
  50 003c 97070000 		sd	a0,.LANCHOR0,a5
  50      23B0A700 
  51              	.L1:
  14:src/sleepQueue.cpp ****     }
  15:src/sleepQueue.cpp ****     else
  16:src/sleepQueue.cpp ****         head = tail = novi;
  17:src/sleepQueue.cpp **** }
  52              		.loc 1 17 1
  53 0044 83308101 		ld	ra,24(sp)
  54              		.cfi_remember_state
  55              		.cfi_restore 1
  56 0048 03340101 		ld	s0,16(sp)
  57              		.cfi_restore 8
  58              		.cfi_def_cfa 2, 32
  59 004c 83348100 		ld	s1,8(sp)
  60              		.cfi_restore 9
  61              	.LVL4:
  62 0050 13010102 		addi	sp,sp,32
  63              		.cfi_def_cfa_offset 0
  64 0054 67800000 		jr	ra
  65              	.LVL5:
  66              	.L2:
  67              		.cfi_restore_state
  16:src/sleepQueue.cpp **** }
  68              		.loc 1 16 9 is_stmt 1
  16:src/sleepQueue.cpp **** }
  69              		.loc 1 16 21 is_stmt 0
  70 0058 97070000 		lla	a5,.LANCHOR0
  70      93870700 
  71 0060 23B0A700 		sd	a0,0(a5)
  16:src/sleepQueue.cpp **** }
  72              		.loc 1 16 14
  73 0064 23B4A700 		sd	a0,8(a5)
  74              		.loc 1 17 1
  75 0068 6FF0DFFD 		j	.L1
  76              		.cfi_endproc
  77              	.LFE34:
  79              		.align	2
  80              		.globl	_ZN10sleepQueue7iterateEv
  82              	_ZN10sleepQueue7iterateEv:
  83              	.LFB35:
  18:src/sleepQueue.cpp **** 
  19:src/sleepQueue.cpp **** void sleepQueue::iterate() {
  84              		.loc 1 19 28 is_stmt 1
  85              		.cfi_startproc
  86 006c 130101FD 		addi	sp,sp,-48
  87              		.cfi_def_cfa_offset 48
  88 0070 23341102 		sd	ra,40(sp)
  89 0074 23308102 		sd	s0,32(sp)
  90 0078 233C9100 		sd	s1,24(sp)
  91 007c 23382101 		sd	s2,16(sp)
GAS LISTING /tmp/ccUUGZ91.s 			page 3


  92 0080 23343101 		sd	s3,8(sp)
  93              		.cfi_offset 1, -8
  94              		.cfi_offset 8, -16
  95              		.cfi_offset 9, -24
  96              		.cfi_offset 18, -32
  97              		.cfi_offset 19, -40
  98 0084 13040103 		addi	s0,sp,48
  99              		.cfi_def_cfa 8, 0
  20:src/sleepQueue.cpp ****     Elem* q = nullptr, *p = head, *old = nullptr;
 100              		.loc 1 20 5
 101              	.LVL6:
 102              		.loc 1 20 25 is_stmt 0
 103 0088 97040000 		ld	s1,.LANCHOR0+8
 103      83B40400 
 104              	.LVL7:
 105              		.loc 1 20 11
 106 0090 13090000 		li	s2,0
 107 0094 6F000003 		j	.L6
 108              	.LVL8:
 109              	.L16:
 110              	.LBB7:
  21:src/sleepQueue.cpp ****     while(p){
  22:src/sleepQueue.cpp ****         p->thread->decTimeToSleep();
  23:src/sleepQueue.cpp ****         uint64 time = p->thread->getTimeToSleep();
  24:src/sleepQueue.cpp ****         if(time == 0){
  25:src/sleepQueue.cpp ****             old = p;
 111              		.loc 1 25 13 is_stmt 1
  26:src/sleepQueue.cpp ****             Scheduler::put(p->thread);
 112              		.loc 1 26 13
 113              		.loc 1 26 27 is_stmt 0
 114 0098 97000000 		call	_ZN9Scheduler3putEP7_thread@plt
 114      E7800000 
 115              	.LVL9:
  27:src/sleepQueue.cpp ****             if(q == nullptr){
 116              		.loc 1 27 13 is_stmt 1
 117 00a0 63080904 		beqz	s2,.L14
  28:src/sleepQueue.cpp ****                 head = p->next;
  29:src/sleepQueue.cpp ****                 if(head == nullptr) {tail = nullptr; MemoryAllocator::kmem_free(old); break;}
  30:src/sleepQueue.cpp ****                 else {p = head;}
  31:src/sleepQueue.cpp ****             }
  32:src/sleepQueue.cpp ****             else{
  33:src/sleepQueue.cpp ****                 q->next = p->next;
 118              		.loc 1 33 17
 119              		.loc 1 33 30 is_stmt 0
 120 00a4 83B70400 		ld	a5,0(s1)
 121              		.loc 1 33 25
 122 00a8 2330F900 		sd	a5,0(s2)
  34:src/sleepQueue.cpp ****                 if(q->next == nullptr) tail = q;
 123              		.loc 1 34 17 is_stmt 1
 124 00ac 63820708 		beqz	a5,.L15
 125              	.L11:
  35:src/sleepQueue.cpp ****                 p = p->next;
 126              		.loc 1 35 17
 127              		.loc 1 35 19 is_stmt 0
 128 00b0 83B90400 		ld	s3,0(s1)
 129              	.LVL10:
 130              	.L10:
GAS LISTING /tmp/ccUUGZ91.s 			page 4


  36:src/sleepQueue.cpp ****             }
  37:src/sleepQueue.cpp ****             MemoryAllocator::kmem_free(old);
 131              		.loc 1 37 13 is_stmt 1
 132              		.loc 1 37 39 is_stmt 0
 133 00b4 13850400 		mv	a0,s1
 134 00b8 97000000 		call	_ZN15MemoryAllocator9kmem_freeEPv@plt
 134      E7800000 
 135              	.LVL11:
 136 00c0 93840900 		mv	s1,s3
 137              	.LVL12:
 138              	.L6:
 139              	.LBE7:
  21:src/sleepQueue.cpp ****         p->thread->decTimeToSleep();
 140              		.loc 1 21 5 is_stmt 1
  21:src/sleepQueue.cpp ****         p->thread->decTimeToSleep();
 141              		.loc 1 21 11
 142 00c4 63880404 		beqz	s1,.L5
 143              	.LBB12:
  22:src/sleepQueue.cpp ****         uint64 time = p->thread->getTimeToSleep();
 144              		.loc 1 22 9
  22:src/sleepQueue.cpp ****         uint64 time = p->thread->getTimeToSleep();
 145              		.loc 1 22 12 is_stmt 0
 146 00c8 03B78400 		ld	a4,8(s1)
 147              	.LVL13:
 148              	.LBB8:
 149              	.LBB9:
 150              		.file 2 "src/../h/thread.hpp"
   1:src/../h/thread.hpp **** #ifndef PROJECT_BASE_V1_0_THREAD_HPP
   2:src/../h/thread.hpp **** #define PROJECT_BASE_V1_0_THREAD_HPP
   3:src/../h/thread.hpp **** #include "../lib/hw.h"
   4:src/../h/thread.hpp **** #include "../h/scheduler.hpp"
   5:src/../h/thread.hpp **** #include "../h/riscV.hpp"
   6:src/../h/thread.hpp **** #include "../h/syscall_c.hpp"
   7:src/../h/thread.hpp **** #include "../h/sleepQueue.hpp"
   8:src/../h/thread.hpp **** #include "../h/memory.hpp"
   9:src/../h/thread.hpp **** 
  10:src/../h/thread.hpp **** class _thread {
  11:src/../h/thread.hpp **** public:
  12:src/../h/thread.hpp ****     ~_thread() {
  13:src/../h/thread.hpp ****         if(stack)
  14:src/../h/thread.hpp ****             MemoryAllocator::kmem_free(stack);
  15:src/../h/thread.hpp ****     }
  16:src/../h/thread.hpp ****     bool isFinished() const { return finished; }
  17:src/../h/thread.hpp ****     void setFinished(bool value) { finished = value; }
  18:src/../h/thread.hpp ****     uint64 getTimeSlice() const { return timeSlice; }
  19:src/../h/thread.hpp ****     uint64 getTimeToSleep() const { return timeToSleep; }
  20:src/../h/thread.hpp ****     void decTimeToSleep() { timeToSleep--; }
 151              		.loc 2 20 29 is_stmt 1
 152 00cc 83378703 		ld	a5,56(a4)
 153              		.loc 2 20 40 is_stmt 0
 154 00d0 9387F7FF 		addi	a5,a5,-1
 155 00d4 233CF702 		sd	a5,56(a4)
 156              	.LVL14:
 157              	.LBE9:
 158              	.LBE8:
  23:src/sleepQueue.cpp ****         if(time == 0){
 159              		.loc 1 23 9 is_stmt 1
GAS LISTING /tmp/ccUUGZ91.s 			page 5


  23:src/sleepQueue.cpp ****         if(time == 0){
 160              		.loc 1 23 26 is_stmt 0
 161 00d8 03B58400 		ld	a0,8(s1)
 162              	.LVL15:
 163              	.LBB10:
 164              	.LBB11:
  19:src/../h/thread.hpp ****     void decTimeToSleep() { timeToSleep--; }
 165              		.loc 2 19 37 is_stmt 1
  19:src/../h/thread.hpp ****     void decTimeToSleep() { timeToSleep--; }
 166              		.loc 2 19 44 is_stmt 0
 167 00dc 83378503 		ld	a5,56(a0)
 168              	.LVL16:
 169              	.LBE11:
 170              	.LBE10:
  24:src/sleepQueue.cpp ****             old = p;
 171              		.loc 1 24 9 is_stmt 1
 172 00e0 E38C07FA 		beqz	a5,.L16
  38:src/sleepQueue.cpp ****         }
  39:src/sleepQueue.cpp ****         else {
  40:src/sleepQueue.cpp ****             q = p;
 173              		.loc 1 40 13
 174              	.LVL17:
  41:src/sleepQueue.cpp ****             p = p->next;
 175              		.loc 1 41 13
  40:src/sleepQueue.cpp ****             p = p->next;
 176              		.loc 1 40 15 is_stmt 0
 177 00e4 13890400 		mv	s2,s1
 178              		.loc 1 41 15
 179 00e8 83B40400 		ld	s1,0(s1)
 180              	.LVL18:
 181 00ec 6FF09FFD 		j	.L6
 182              	.LVL19:
 183              	.L14:
  28:src/sleepQueue.cpp ****                 if(head == nullptr) {tail = nullptr; MemoryAllocator::kmem_free(old); break;}
 184              		.loc 1 28 17 is_stmt 1
  28:src/sleepQueue.cpp ****                 if(head == nullptr) {tail = nullptr; MemoryAllocator::kmem_free(old); break;}
 185              		.loc 1 28 27 is_stmt 0
 186 00f0 83B90400 		ld	s3,0(s1)
  28:src/sleepQueue.cpp ****                 if(head == nullptr) {tail = nullptr; MemoryAllocator::kmem_free(old); break;}
 187              		.loc 1 28 22
 188 00f4 97070000 		sd	s3,.LANCHOR0+8,a5
 188      23B03701 
  29:src/sleepQueue.cpp ****                 else {p = head;}
 189              		.loc 1 29 17 is_stmt 1
 190 00fc E39C09FA 		bnez	s3,.L10
  29:src/sleepQueue.cpp ****                 else {p = head;}
 191              		.loc 1 29 38 discriminator 1
  29:src/sleepQueue.cpp ****                 else {p = head;}
 192              		.loc 1 29 43 is_stmt 0 discriminator 1
 193 0100 97070000 		sd	zero,.LANCHOR0,a5
 193      23B00700 
  29:src/sleepQueue.cpp ****                 else {p = head;}
 194              		.loc 1 29 54 is_stmt 1 discriminator 1
  29:src/sleepQueue.cpp ****                 else {p = head;}
 195              		.loc 1 29 80 is_stmt 0 discriminator 1
 196 0108 13850400 		mv	a0,s1
 197 010c 97000000 		call	_ZN15MemoryAllocator9kmem_freeEPv@plt
GAS LISTING /tmp/ccUUGZ91.s 			page 6


 197      E7800000 
 198              	.LVL20:
  29:src/sleepQueue.cpp ****                 else {p = head;}
 199              		.loc 1 29 87 is_stmt 1 discriminator 1
 200              	.L5:
 201              	.LBE12:
  42:src/sleepQueue.cpp ****         }
  43:src/sleepQueue.cpp ****     }
  44:src/sleepQueue.cpp **** }...
 202              		.loc 1 44 1 is_stmt 0
 203 0114 83308102 		ld	ra,40(sp)
 204              		.cfi_remember_state
 205              		.cfi_restore 1
 206 0118 03340102 		ld	s0,32(sp)
 207              		.cfi_restore 8
 208              		.cfi_def_cfa 2, 48
 209 011c 83348101 		ld	s1,24(sp)
 210              		.cfi_restore 9
 211              	.LVL21:
 212 0120 03390101 		ld	s2,16(sp)
 213              		.cfi_restore 18
 214              	.LVL22:
 215 0124 83398100 		ld	s3,8(sp)
 216              		.cfi_restore 19
 217 0128 13010103 		addi	sp,sp,48
 218              		.cfi_def_cfa_offset 0
 219 012c 67800000 		jr	ra
 220              	.LVL23:
 221              	.L15:
 222              		.cfi_restore_state
 223              	.LBB13:
  34:src/sleepQueue.cpp ****                 if(q->next == nullptr) tail = q;
 224              		.loc 1 34 40 is_stmt 1 discriminator 1
  34:src/sleepQueue.cpp ****                 if(q->next == nullptr) tail = q;
 225              		.loc 1 34 45 is_stmt 0 discriminator 1
 226 0130 97070000 		sd	s2,.LANCHOR0,a5
 226      23B02701 
 227 0138 6FF09FF7 		j	.L11
 228              	.LBE13:
 229              		.cfi_endproc
 230              	.LFE35:
 232              		.globl	_ZN10sleepQueue4tailE
 233              		.globl	_ZN10sleepQueue4headE
 234              		.bss
 235              		.align	3
 236              		.set	.LANCHOR0,. + 0
 239              	_ZN10sleepQueue4tailE:
 240 0000 00000000 		.zero	8
 240      00000000 
 243              	_ZN10sleepQueue4headE:
 244 0008 00000000 		.zero	8
 244      00000000 
 245              		.text
 246              	.Letext0:
 247              		.file 3 "src/../h/../lib/hw.h"
 248              		.file 4 "src/../h/memory.hpp"
 249              		.file 5 "src/../h/../h/syscall_c.hpp"
GAS LISTING /tmp/ccUUGZ91.s 			page 7


 250              		.file 6 "src/../h/../h/scheduler.hpp"
 251              		.file 7 "src/../h/sleepQueue.hpp"
GAS LISTING /tmp/ccUUGZ91.s 			page 8

