GAS LISTING /tmp/ccM0DL6P.s 			page 1


   1              		.file	"syscall_c.cpp"
   2              		.option pic
   3              		.option norelax
   4              		.text
   5              	.Ltext0:
   6              		.align	2
   7              		.globl	_Z9mem_allocm
   9              	_Z9mem_allocm:
  10              	.LFB18:
  11              		.file 1 "src/syscall_c.cpp"
   1:src/syscall_c.cpp **** #include "../h/syscall_c.hpp"
   2:src/syscall_c.cpp **** #include "../h/riscV.hpp"
   3:src/syscall_c.cpp **** #include "../lib/console.h"
   4:src/syscall_c.cpp **** 
   5:src/syscall_c.cpp **** void* mem_alloc(size_t size){
  12              		.loc 1 5 29
  13              		.cfi_startproc
  14              	.LVL0:
   6:src/syscall_c.cpp ****     if(size <= 0 || size > (uint64)HEAP_END_ADDR - (uint64)HEAP_START_ADDR) return nullptr;
  15              		.loc 1 6 5
  16 0000 630E0506 		beqz	a0,.L3
  17              		.loc 1 6 50 is_stmt 0 discriminator 2
  18 0004 97070000 		la	a5,HEAP_END_ADDR
  18      83B70700 
  19 000c 83B70700 		ld	a5,0(a5)
  20 0010 17070000 		la	a4,HEAP_START_ADDR
  20      03370700 
  21 0018 03370700 		ld	a4,0(a4)
  22 001c B387E740 		sub	a5,a5,a4
  23              		.loc 1 6 18 discriminator 2
  24 0020 63E2A706 		bgtu	a0,a5,.L4
   5:src/syscall_c.cpp ****     if(size <= 0 || size > (uint64)HEAP_END_ADDR - (uint64)HEAP_START_ADDR) return nullptr;
  25              		.loc 1 5 29
  26 0024 130101FE 		addi	sp,sp,-32
  27              		.cfi_def_cfa_offset 32
  28 0028 233C1100 		sd	ra,24(sp)
  29 002c 23388100 		sd	s0,16(sp)
  30              		.cfi_offset 1, -8
  31              		.cfi_offset 8, -16
  32 0030 13040102 		addi	s0,sp,32
  33              		.cfi_def_cfa 8, 0
   7:src/syscall_c.cpp ****     else size = (size + sizeof(size_t))/MEM_BLOCK_SIZE + (((size + sizeof(size_t))%MEM_BLOCK_SIZE)=
  34              		.loc 1 7 10 is_stmt 1
  35              		.loc 1 7 23 is_stmt 0
  36 0034 13058500 		addi	a0,a0,8
  37              	.LVL1:
  38              		.loc 1 7 40
  39 0038 93576500 		srli	a5,a0,6
  40              		.loc 1 7 83
  41 003c 1375F503 		andi	a0,a0,63
  42              	.LVL2:
  43              		.loc 1 7 102
  44 0040 3335A000 		snez	a0,a0
  45              		.loc 1 7 56
  46 0044 3385A700 		add	a0,a5,a0
  47              		.loc 1 7 15
  48 0048 2334A4FE 		sd	a0,-24(s0)
GAS LISTING /tmp/ccM0DL6P.s 			page 2


   8:src/syscall_c.cpp ****     Riscv::sysCall(0x1,&size, nullptr, nullptr, nullptr);
  49              		.loc 1 8 5 is_stmt 1
  50              		.loc 1 8 19 is_stmt 0
  51 004c 13070000 		li	a4,0
  52 0050 93060000 		li	a3,0
  53 0054 13060000 		li	a2,0
  54 0058 930584FE 		addi	a1,s0,-24
  55 005c 13051000 		li	a0,1
  56 0060 97000000 		call	_ZN5Riscv7sysCallEmPvS0_S0_S0_@plt
  56      E7800000 
  57              	.LVL3:
   9:src/syscall_c.cpp ****     void* res = nullptr;
  58              		.loc 1 9 5 is_stmt 1
  10:src/syscall_c.cpp ****     __asm__ ("mv %[res], a0" : [res] "=r"(res));
  59              		.loc 1 10 5
  60              		.loc 1 10 48 is_stmt 0
  61              	#APP
  62              	# 10 "src/syscall_c.cpp" 1
  11              	    return res;
  63              		mv a0, a0
  64              	# 0 "" 2
  65              	.LVL4:
  66              		.loc 1 11 5 is_stmt 1
  12:src/syscall_c.cpp **** }
  67              		.loc 1 12 1 is_stmt 0
  68              	#NO_APP
  69 006c 83308101 		ld	ra,24(sp)
  70              		.cfi_restore 1
  71 0070 03340101 		ld	s0,16(sp)
  72              		.cfi_restore 8
  73              		.cfi_def_cfa 2, 32
  74 0074 13010102 		addi	sp,sp,32
  75              		.cfi_def_cfa_offset 0
  76 0078 67800000 		jr	ra
  77              	.LVL5:
  78              	.L3:
   6:src/syscall_c.cpp ****     else size = (size + sizeof(size_t))/MEM_BLOCK_SIZE + (((size + sizeof(size_t))%MEM_BLOCK_SIZE)=
  79              		.loc 1 6 84
  80 007c 13050000 		li	a0,0
  81              	.LVL6:
  82 0080 67800000 		ret
  83              	.LVL7:
  84              	.L4:
  85 0084 13050000 		li	a0,0
  86              	.LVL8:
  87              		.loc 1 12 1
  88 0088 67800000 		ret
  89              		.cfi_endproc
  90              	.LFE18:
  92              		.align	2
  93              		.globl	_Z8mem_freePv
  95              	_Z8mem_freePv:
  96              	.LFB19:
  13:src/syscall_c.cpp **** 
  14:src/syscall_c.cpp **** int mem_free(void* addr){
  97              		.loc 1 14 25 is_stmt 1
  98              		.cfi_startproc
GAS LISTING /tmp/ccM0DL6P.s 			page 3


  99              	.LVL9:
  15:src/syscall_c.cpp ****     if(addr == nullptr) return -1;
 100              		.loc 1 15 5
 101 008c 63040504 		beqz	a0,.L11
  14:src/syscall_c.cpp ****     if(addr == nullptr) return -1;
 102              		.loc 1 14 25 is_stmt 0
 103 0090 130101FF 		addi	sp,sp,-16
 104              		.cfi_def_cfa_offset 16
 105 0094 23341100 		sd	ra,8(sp)
 106 0098 23308100 		sd	s0,0(sp)
 107              		.cfi_offset 1, -8
 108              		.cfi_offset 8, -16
 109 009c 13040101 		addi	s0,sp,16
 110              		.cfi_def_cfa 8, 0
 111 00a0 93050500 		mv	a1,a0
  16:src/syscall_c.cpp ****     Riscv::sysCall(0x2, addr, nullptr, nullptr, nullptr);
 112              		.loc 1 16 5 is_stmt 1
 113              		.loc 1 16 19 is_stmt 0
 114 00a4 13070000 		li	a4,0
 115 00a8 93060000 		li	a3,0
 116 00ac 13060000 		li	a2,0
 117 00b0 13052000 		li	a0,2
 118              	.LVL10:
 119 00b4 97000000 		call	_ZN5Riscv7sysCallEmPvS0_S0_S0_@plt
 119      E7800000 
 120              	.LVL11:
  17:src/syscall_c.cpp ****     uint64 res = 0;
 121              		.loc 1 17 5 is_stmt 1
  18:src/syscall_c.cpp ****     __asm__ ("mv %[res], a0" : [res] "=r"(res));
 122              		.loc 1 18 5
 123              		.loc 1 18 48 is_stmt 0
 124              	#APP
 125              	# 18 "src/syscall_c.cpp" 1
  19              	    return res;
 126              		mv a0, a0
 127              	# 0 "" 2
 128              	.LVL12:
 129              		.loc 1 19 5 is_stmt 1
 130              		.loc 1 19 12 is_stmt 0
 131              	#NO_APP
 132 00c0 1B050500 		sext.w	a0,a0
 133              	.LVL13:
  20:src/syscall_c.cpp **** }
 134              		.loc 1 20 1
 135 00c4 83308100 		ld	ra,8(sp)
 136              		.cfi_restore 1
 137 00c8 03340100 		ld	s0,0(sp)
 138              		.cfi_restore 8
 139              		.cfi_def_cfa 2, 16
 140 00cc 13010101 		addi	sp,sp,16
 141              		.cfi_def_cfa_offset 0
 142 00d0 67800000 		jr	ra
 143              	.LVL14:
 144              	.L11:
  15:src/syscall_c.cpp ****     Riscv::sysCall(0x2, addr, nullptr, nullptr, nullptr);
 145              		.loc 1 15 33
 146 00d4 1305F0FF 		li	a0,-1
GAS LISTING /tmp/ccM0DL6P.s 			page 4


 147              	.LVL15:
 148              		.loc 1 20 1
 149 00d8 67800000 		ret
 150              		.cfi_endproc
 151              	.LFE19:
 153              		.align	2
 154              		.globl	_Z13thread_createPP7_threadPFvPvES2_
 156              	_Z13thread_createPP7_threadPFvPvES2_:
 157              	.LFB20:
  21:src/syscall_c.cpp **** 
  22:src/syscall_c.cpp **** int thread_create(thread_t* handle, void(*start_routine)(void*), void* arg){
 158              		.loc 1 22 76 is_stmt 1
 159              		.cfi_startproc
 160              	.LVL16:
 161 00dc 130101FD 		addi	sp,sp,-48
 162              		.cfi_def_cfa_offset 48
 163 00e0 23341102 		sd	ra,40(sp)
 164 00e4 23308102 		sd	s0,32(sp)
 165 00e8 233C9100 		sd	s1,24(sp)
 166 00ec 23382101 		sd	s2,16(sp)
 167 00f0 23343101 		sd	s3,8(sp)
 168              		.cfi_offset 1, -8
 169              		.cfi_offset 8, -16
 170              		.cfi_offset 9, -24
 171              		.cfi_offset 18, -32
 172              		.cfi_offset 19, -40
 173 00f4 13040103 		addi	s0,sp,48
 174              		.cfi_def_cfa 8, 0
 175 00f8 93040500 		mv	s1,a0
 176 00fc 13890500 		mv	s2,a1
 177 0100 93090600 		mv	s3,a2
  23:src/syscall_c.cpp ****     void* stack_size = mem_alloc((uint64)DEFAULT_STACK_SIZE);
 178              		.loc 1 23 5
 179              		.loc 1 23 33 is_stmt 0
 180 0104 37150000 		li	a0,4096
 181              	.LVL17:
 182 0108 97000000 		call	_Z9mem_allocm
 182      E7800000 
 183              	.LVL18:
 184 0110 13070500 		mv	a4,a0
 185              	.LVL19:
  24:src/syscall_c.cpp ****     Riscv::sysCall(0x11, handle, (void*)start_routine, arg, stack_size);
 186              		.loc 1 24 5 is_stmt 1
 187              		.loc 1 24 19 is_stmt 0
 188 0114 93860900 		mv	a3,s3
 189 0118 13060900 		mv	a2,s2
 190 011c 93850400 		mv	a1,s1
 191 0120 13051001 		li	a0,17
 192              	.LVL20:
 193 0124 97000000 		call	_ZN5Riscv7sysCallEmPvS0_S0_S0_@plt
 193      E7800000 
 194              	.LVL21:
  25:src/syscall_c.cpp ****     uint64 res = 0;
 195              		.loc 1 25 5 is_stmt 1
  26:src/syscall_c.cpp ****     __asm__ ("mv %[res], a0" : [res] "=r"(res));
 196              		.loc 1 26 5
 197              		.loc 1 26 48 is_stmt 0
GAS LISTING /tmp/ccM0DL6P.s 			page 5


 198              	#APP
 199              	# 26 "src/syscall_c.cpp" 1
  27              	    return res;
 200              		mv a0, a0
 201              	# 0 "" 2
 202              	.LVL22:
 203              		.loc 1 27 5 is_stmt 1
  28:src/syscall_c.cpp **** }
 204              		.loc 1 28 1 is_stmt 0
 205              	#NO_APP
 206 0130 1B050500 		sext.w	a0,a0
 207              	.LVL23:
 208 0134 83308102 		ld	ra,40(sp)
 209              		.cfi_restore 1
 210 0138 03340102 		ld	s0,32(sp)
 211              		.cfi_restore 8
 212              		.cfi_def_cfa 2, 48
 213 013c 83348101 		ld	s1,24(sp)
 214              		.cfi_restore 9
 215              	.LVL24:
 216 0140 03390101 		ld	s2,16(sp)
 217              		.cfi_restore 18
 218              	.LVL25:
 219 0144 83398100 		ld	s3,8(sp)
 220              		.cfi_restore 19
 221              	.LVL26:
 222 0148 13010103 		addi	sp,sp,48
 223              		.cfi_def_cfa_offset 0
 224 014c 67800000 		jr	ra
 225              		.cfi_endproc
 226              	.LFE20:
 228              		.align	2
 229              		.globl	_Z11thread_exitv
 231              	_Z11thread_exitv:
 232              	.LFB21:
  29:src/syscall_c.cpp **** 
  30:src/syscall_c.cpp **** int thread_exit(){
 233              		.loc 1 30 18 is_stmt 1
 234              		.cfi_startproc
 235 0150 130101FF 		addi	sp,sp,-16
 236              		.cfi_def_cfa_offset 16
 237 0154 23341100 		sd	ra,8(sp)
 238 0158 23308100 		sd	s0,0(sp)
 239              		.cfi_offset 1, -8
 240              		.cfi_offset 8, -16
 241 015c 13040101 		addi	s0,sp,16
 242              		.cfi_def_cfa 8, 0
  31:src/syscall_c.cpp ****     Riscv::sysCall(0x12, nullptr, nullptr, nullptr, nullptr);
 243              		.loc 1 31 5
 244              		.loc 1 31 19 is_stmt 0
 245 0160 13070000 		li	a4,0
 246 0164 93060000 		li	a3,0
 247 0168 13060000 		li	a2,0
 248 016c 93050000 		li	a1,0
 249 0170 13052001 		li	a0,18
 250 0174 97000000 		call	_ZN5Riscv7sysCallEmPvS0_S0_S0_@plt
 250      E7800000 
GAS LISTING /tmp/ccM0DL6P.s 			page 6


 251              	.LVL27:
  32:src/syscall_c.cpp ****     uint64 res = 0;
 252              		.loc 1 32 5 is_stmt 1
  33:src/syscall_c.cpp ****     __asm__ ("mv %[res], a0" : [res] "=r"(res));
 253              		.loc 1 33 5
 254              		.loc 1 33 48 is_stmt 0
 255              	#APP
 256              	# 33 "src/syscall_c.cpp" 1
  34              	    return res;
 257              		mv a0, a0
 258              	# 0 "" 2
 259              	.LVL28:
 260              		.loc 1 34 5 is_stmt 1
  35:src/syscall_c.cpp **** }
 261              		.loc 1 35 1 is_stmt 0
 262              	#NO_APP
 263 0180 1B050500 		sext.w	a0,a0
 264              	.LVL29:
 265 0184 83308100 		ld	ra,8(sp)
 266              		.cfi_restore 1
 267 0188 03340100 		ld	s0,0(sp)
 268              		.cfi_restore 8
 269              		.cfi_def_cfa 2, 16
 270 018c 13010101 		addi	sp,sp,16
 271              		.cfi_def_cfa_offset 0
 272 0190 67800000 		jr	ra
 273              		.cfi_endproc
 274              	.LFE21:
 276              		.align	2
 277              		.globl	_Z15thread_dispatchv
 279              	_Z15thread_dispatchv:
 280              	.LFB22:
  36:src/syscall_c.cpp **** void thread_dispatch(){
 281              		.loc 1 36 23 is_stmt 1
 282              		.cfi_startproc
 283 0194 130101FF 		addi	sp,sp,-16
 284              		.cfi_def_cfa_offset 16
 285 0198 23341100 		sd	ra,8(sp)
 286 019c 23308100 		sd	s0,0(sp)
 287              		.cfi_offset 1, -8
 288              		.cfi_offset 8, -16
 289 01a0 13040101 		addi	s0,sp,16
 290              		.cfi_def_cfa 8, 0
  37:src/syscall_c.cpp ****     Riscv::sysCall(0x13, nullptr, nullptr, nullptr, nullptr);
 291              		.loc 1 37 5
 292              		.loc 1 37 19 is_stmt 0
 293 01a4 13070000 		li	a4,0
 294 01a8 93060000 		li	a3,0
 295 01ac 13060000 		li	a2,0
 296 01b0 93050000 		li	a1,0
 297 01b4 13053001 		li	a0,19
 298 01b8 97000000 		call	_ZN5Riscv7sysCallEmPvS0_S0_S0_@plt
 298      E7800000 
 299              	.LVL30:
  38:src/syscall_c.cpp **** }
 300              		.loc 1 38 1
 301 01c0 83308100 		ld	ra,8(sp)
GAS LISTING /tmp/ccM0DL6P.s 			page 7


 302              		.cfi_restore 1
 303 01c4 03340100 		ld	s0,0(sp)
 304              		.cfi_restore 8
 305              		.cfi_def_cfa 2, 16
 306 01c8 13010101 		addi	sp,sp,16
 307              		.cfi_def_cfa_offset 0
 308 01cc 67800000 		jr	ra
 309              		.cfi_endproc
 310              	.LFE22:
 312              		.align	2
 313              		.globl	_Z17thread_create_cppPP7_threadPFvPvES2_
 315              	_Z17thread_create_cppPP7_threadPFvPvES2_:
 316              	.LFB23:
  39:src/syscall_c.cpp **** 
  40:src/syscall_c.cpp **** void thread_create_cpp(thread_t* handle, void(*start_routine)(void*), void* arg){
 317              		.loc 1 40 81 is_stmt 1
 318              		.cfi_startproc
 319              	.LVL31:
 320 01d0 130101FD 		addi	sp,sp,-48
 321              		.cfi_def_cfa_offset 48
 322 01d4 23341102 		sd	ra,40(sp)
 323 01d8 23308102 		sd	s0,32(sp)
 324 01dc 233C9100 		sd	s1,24(sp)
 325 01e0 23382101 		sd	s2,16(sp)
 326 01e4 23343101 		sd	s3,8(sp)
 327              		.cfi_offset 1, -8
 328              		.cfi_offset 8, -16
 329              		.cfi_offset 9, -24
 330              		.cfi_offset 18, -32
 331              		.cfi_offset 19, -40
 332 01e8 13040103 		addi	s0,sp,48
 333              		.cfi_def_cfa 8, 0
 334 01ec 93040500 		mv	s1,a0
 335 01f0 13890500 		mv	s2,a1
 336 01f4 93090600 		mv	s3,a2
  41:src/syscall_c.cpp ****     void* stack_size = mem_alloc((uint64)DEFAULT_STACK_SIZE);
 337              		.loc 1 41 5
 338              		.loc 1 41 33 is_stmt 0
 339 01f8 37150000 		li	a0,4096
 340              	.LVL32:
 341 01fc 97000000 		call	_Z9mem_allocm
 341      E7800000 
 342              	.LVL33:
 343 0204 13070500 		mv	a4,a0
 344              	.LVL34:
  42:src/syscall_c.cpp ****     Riscv::sysCall(0x14, handle, (void*)start_routine, arg, stack_size);
 345              		.loc 1 42 5 is_stmt 1
 346              		.loc 1 42 19 is_stmt 0
 347 0208 93860900 		mv	a3,s3
 348 020c 13060900 		mv	a2,s2
 349 0210 93850400 		mv	a1,s1
 350 0214 13054001 		li	a0,20
 351              	.LVL35:
 352 0218 97000000 		call	_ZN5Riscv7sysCallEmPvS0_S0_S0_@plt
 352      E7800000 
 353              	.LVL36:
  43:src/syscall_c.cpp **** }
GAS LISTING /tmp/ccM0DL6P.s 			page 8


 354              		.loc 1 43 1
 355 0220 83308102 		ld	ra,40(sp)
 356              		.cfi_restore 1
 357 0224 03340102 		ld	s0,32(sp)
 358              		.cfi_restore 8
 359              		.cfi_def_cfa 2, 48
 360 0228 83348101 		ld	s1,24(sp)
 361              		.cfi_restore 9
 362              	.LVL37:
 363 022c 03390101 		ld	s2,16(sp)
 364              		.cfi_restore 18
 365              	.LVL38:
 366 0230 83398100 		ld	s3,8(sp)
 367              		.cfi_restore 19
 368              	.LVL39:
 369 0234 13010103 		addi	sp,sp,48
 370              		.cfi_def_cfa_offset 0
 371 0238 67800000 		jr	ra
 372              		.cfi_endproc
 373              	.LFE23:
 375              		.align	2
 376              		.globl	_Z12addSchedulerP7_thread
 378              	_Z12addSchedulerP7_thread:
 379              	.LFB24:
  44:src/syscall_c.cpp **** 
  45:src/syscall_c.cpp **** void addScheduler(thread_t t){
 380              		.loc 1 45 30 is_stmt 1
 381              		.cfi_startproc
 382              	.LVL40:
 383 023c 130101FF 		addi	sp,sp,-16
 384              		.cfi_def_cfa_offset 16
 385 0240 23341100 		sd	ra,8(sp)
 386 0244 23308100 		sd	s0,0(sp)
 387              		.cfi_offset 1, -8
 388              		.cfi_offset 8, -16
 389 0248 13040101 		addi	s0,sp,16
 390              		.cfi_def_cfa 8, 0
 391 024c 93050500 		mv	a1,a0
  46:src/syscall_c.cpp ****     Riscv::sysCall(0x15, t, nullptr, nullptr, nullptr);
 392              		.loc 1 46 5
 393              		.loc 1 46 19 is_stmt 0
 394 0250 13070000 		li	a4,0
 395 0254 93060000 		li	a3,0
 396 0258 13060000 		li	a2,0
 397 025c 13055001 		li	a0,21
 398              	.LVL41:
 399 0260 97000000 		call	_ZN5Riscv7sysCallEmPvS0_S0_S0_@plt
 399      E7800000 
 400              	.LVL42:
  47:src/syscall_c.cpp **** }
 401              		.loc 1 47 1
 402 0268 83308100 		ld	ra,8(sp)
 403              		.cfi_restore 1
 404 026c 03340100 		ld	s0,0(sp)
 405              		.cfi_restore 8
 406              		.cfi_def_cfa 2, 16
 407 0270 13010101 		addi	sp,sp,16
GAS LISTING /tmp/ccM0DL6P.s 			page 9


 408              		.cfi_def_cfa_offset 0
 409 0274 67800000 		jr	ra
 410              		.cfi_endproc
 411              	.LFE24:
 413              		.align	2
 414              		.globl	_Z8sem_openPP4_semj
 416              	_Z8sem_openPP4_semj:
 417              	.LFB25:
  48:src/syscall_c.cpp **** 
  49:src/syscall_c.cpp **** int sem_open(sem_t* handle, unsigned  init){
 418              		.loc 1 49 44 is_stmt 1
 419              		.cfi_startproc
 420              	.LVL43:
 421 0278 130101FE 		addi	sp,sp,-32
 422              		.cfi_def_cfa_offset 32
 423 027c 233C1100 		sd	ra,24(sp)
 424 0280 23388100 		sd	s0,16(sp)
 425              		.cfi_offset 1, -8
 426              		.cfi_offset 8, -16
 427 0284 13040102 		addi	s0,sp,32
 428              		.cfi_def_cfa 8, 0
 429 0288 2326B4FE 		sw	a1,-20(s0)
  50:src/syscall_c.cpp ****     Riscv::sysCall(0x21, handle, &init, nullptr, nullptr);
 430              		.loc 1 50 5
 431              		.loc 1 50 19 is_stmt 0
 432 028c 13070000 		li	a4,0
 433 0290 93060000 		li	a3,0
 434 0294 1306C4FE 		addi	a2,s0,-20
 435 0298 93050500 		mv	a1,a0
 436              	.LVL44:
 437 029c 13051002 		li	a0,33
 438              	.LVL45:
 439 02a0 97000000 		call	_ZN5Riscv7sysCallEmPvS0_S0_S0_@plt
 439      E7800000 
 440              	.LVL46:
  51:src/syscall_c.cpp ****     uint64 res = 0;
 441              		.loc 1 51 5 is_stmt 1
  52:src/syscall_c.cpp ****     __asm__ ("mv %[res], a0" : [res] "=r"(res));
 442              		.loc 1 52 5
 443              		.loc 1 52 48 is_stmt 0
 444              	#APP
 445              	# 52 "src/syscall_c.cpp" 1
  53              	    return res;
 446              		mv a0, a0
 447              	# 0 "" 2
 448              	.LVL47:
 449              		.loc 1 53 5 is_stmt 1
  54:src/syscall_c.cpp **** }
 450              		.loc 1 54 1 is_stmt 0
 451              	#NO_APP
 452 02ac 1B050500 		sext.w	a0,a0
 453              	.LVL48:
 454 02b0 83308101 		ld	ra,24(sp)
 455              		.cfi_restore 1
 456 02b4 03340101 		ld	s0,16(sp)
 457              		.cfi_restore 8
 458              		.cfi_def_cfa 2, 32
GAS LISTING /tmp/ccM0DL6P.s 			page 10


 459 02b8 13010102 		addi	sp,sp,32
 460              		.cfi_def_cfa_offset 0
 461 02bc 67800000 		jr	ra
 462              		.cfi_endproc
 463              	.LFE25:
 465              		.align	2
 466              		.globl	_Z9sem_closeP4_sem
 468              	_Z9sem_closeP4_sem:
 469              	.LFB26:
  55:src/syscall_c.cpp **** int sem_close(sem_t handle){
 470              		.loc 1 55 28 is_stmt 1
 471              		.cfi_startproc
 472              	.LVL49:
 473 02c0 130101FF 		addi	sp,sp,-16
 474              		.cfi_def_cfa_offset 16
 475 02c4 23341100 		sd	ra,8(sp)
 476 02c8 23308100 		sd	s0,0(sp)
 477              		.cfi_offset 1, -8
 478              		.cfi_offset 8, -16
 479 02cc 13040101 		addi	s0,sp,16
 480              		.cfi_def_cfa 8, 0
 481 02d0 93050500 		mv	a1,a0
  56:src/syscall_c.cpp ****     Riscv::sysCall(0x22, handle, nullptr, nullptr, nullptr);
 482              		.loc 1 56 5
 483              		.loc 1 56 19 is_stmt 0
 484 02d4 13070000 		li	a4,0
 485 02d8 93060000 		li	a3,0
 486 02dc 13060000 		li	a2,0
 487 02e0 13052002 		li	a0,34
 488              	.LVL50:
 489 02e4 97000000 		call	_ZN5Riscv7sysCallEmPvS0_S0_S0_@plt
 489      E7800000 
 490              	.LVL51:
  57:src/syscall_c.cpp ****     uint64 res = 0;
 491              		.loc 1 57 5 is_stmt 1
  58:src/syscall_c.cpp ****     __asm__ ("mv %[res], a0" : [res] "=r"(res));
 492              		.loc 1 58 5
 493              		.loc 1 58 48 is_stmt 0
 494              	#APP
 495              	# 58 "src/syscall_c.cpp" 1
  59              	    return res;
 496              		mv a0, a0
 497              	# 0 "" 2
 498              	.LVL52:
 499              		.loc 1 59 5 is_stmt 1
  60:src/syscall_c.cpp **** }
 500              		.loc 1 60 1 is_stmt 0
 501              	#NO_APP
 502 02f0 1B050500 		sext.w	a0,a0
 503              	.LVL53:
 504 02f4 83308100 		ld	ra,8(sp)
 505              		.cfi_restore 1
 506 02f8 03340100 		ld	s0,0(sp)
 507              		.cfi_restore 8
 508              		.cfi_def_cfa 2, 16
 509 02fc 13010101 		addi	sp,sp,16
 510              		.cfi_def_cfa_offset 0
GAS LISTING /tmp/ccM0DL6P.s 			page 11


 511 0300 67800000 		jr	ra
 512              		.cfi_endproc
 513              	.LFE26:
 515              		.align	2
 516              		.globl	_Z8sem_waitP4_sem
 518              	_Z8sem_waitP4_sem:
 519              	.LFB27:
  61:src/syscall_c.cpp **** int sem_wait(sem_t id){
 520              		.loc 1 61 23 is_stmt 1
 521              		.cfi_startproc
 522              	.LVL54:
 523 0304 130101FF 		addi	sp,sp,-16
 524              		.cfi_def_cfa_offset 16
 525 0308 23341100 		sd	ra,8(sp)
 526 030c 23308100 		sd	s0,0(sp)
 527              		.cfi_offset 1, -8
 528              		.cfi_offset 8, -16
 529 0310 13040101 		addi	s0,sp,16
 530              		.cfi_def_cfa 8, 0
 531 0314 93050500 		mv	a1,a0
  62:src/syscall_c.cpp ****     Riscv::sysCall(0x23, id, nullptr, nullptr, nullptr);
 532              		.loc 1 62 5
 533              		.loc 1 62 19 is_stmt 0
 534 0318 13070000 		li	a4,0
 535 031c 93060000 		li	a3,0
 536 0320 13060000 		li	a2,0
 537 0324 13053002 		li	a0,35
 538              	.LVL55:
 539 0328 97000000 		call	_ZN5Riscv7sysCallEmPvS0_S0_S0_@plt
 539      E7800000 
 540              	.LVL56:
  63:src/syscall_c.cpp ****     uint64 res = 0;
 541              		.loc 1 63 5 is_stmt 1
  64:src/syscall_c.cpp ****     __asm__ ("mv %[res], a0" : [res] "=r"(res));
 542              		.loc 1 64 5
 543              		.loc 1 64 48 is_stmt 0
 544              	#APP
 545              	# 64 "src/syscall_c.cpp" 1
  65              	    return res;
 546              		mv a0, a0
 547              	# 0 "" 2
 548              	.LVL57:
 549              		.loc 1 65 5 is_stmt 1
  66:src/syscall_c.cpp **** }
 550              		.loc 1 66 1 is_stmt 0
 551              	#NO_APP
 552 0334 1B050500 		sext.w	a0,a0
 553              	.LVL58:
 554 0338 83308100 		ld	ra,8(sp)
 555              		.cfi_restore 1
 556 033c 03340100 		ld	s0,0(sp)
 557              		.cfi_restore 8
 558              		.cfi_def_cfa 2, 16
 559 0340 13010101 		addi	sp,sp,16
 560              		.cfi_def_cfa_offset 0
 561 0344 67800000 		jr	ra
 562              		.cfi_endproc
GAS LISTING /tmp/ccM0DL6P.s 			page 12


 563              	.LFE27:
 565              		.align	2
 566              		.globl	_Z10sem_signalP4_sem
 568              	_Z10sem_signalP4_sem:
 569              	.LFB28:
  67:src/syscall_c.cpp **** int sem_signal(sem_t id){
 570              		.loc 1 67 25 is_stmt 1
 571              		.cfi_startproc
 572              	.LVL59:
 573 0348 130101FF 		addi	sp,sp,-16
 574              		.cfi_def_cfa_offset 16
 575 034c 23341100 		sd	ra,8(sp)
 576 0350 23308100 		sd	s0,0(sp)
 577              		.cfi_offset 1, -8
 578              		.cfi_offset 8, -16
 579 0354 13040101 		addi	s0,sp,16
 580              		.cfi_def_cfa 8, 0
 581 0358 93050500 		mv	a1,a0
  68:src/syscall_c.cpp ****     Riscv::sysCall(0x24, id, nullptr, nullptr, nullptr);
 582              		.loc 1 68 5
 583              		.loc 1 68 19 is_stmt 0
 584 035c 13070000 		li	a4,0
 585 0360 93060000 		li	a3,0
 586 0364 13060000 		li	a2,0
 587 0368 13054002 		li	a0,36
 588              	.LVL60:
 589 036c 97000000 		call	_ZN5Riscv7sysCallEmPvS0_S0_S0_@plt
 589      E7800000 
 590              	.LVL61:
  69:src/syscall_c.cpp ****     uint64 res = 0;
 591              		.loc 1 69 5 is_stmt 1
  70:src/syscall_c.cpp ****     __asm__ ("mv %[res], a0" : [res] "=r"(res));
 592              		.loc 1 70 5
 593              		.loc 1 70 48 is_stmt 0
 594              	#APP
 595              	# 70 "src/syscall_c.cpp" 1
  71              	    return res;
 596              		mv a0, a0
 597              	# 0 "" 2
 598              	.LVL62:
 599              		.loc 1 71 5 is_stmt 1
  72:src/syscall_c.cpp **** }
 600              		.loc 1 72 1 is_stmt 0
 601              	#NO_APP
 602 0378 1B050500 		sext.w	a0,a0
 603              	.LVL63:
 604 037c 83308100 		ld	ra,8(sp)
 605              		.cfi_restore 1
 606 0380 03340100 		ld	s0,0(sp)
 607              		.cfi_restore 8
 608              		.cfi_def_cfa 2, 16
 609 0384 13010101 		addi	sp,sp,16
 610              		.cfi_def_cfa_offset 0
 611 0388 67800000 		jr	ra
 612              		.cfi_endproc
 613              	.LFE28:
 615              		.align	2
GAS LISTING /tmp/ccM0DL6P.s 			page 13


 616              		.globl	_Z10time_sleepm
 618              	_Z10time_sleepm:
 619              	.LFB29:
  73:src/syscall_c.cpp **** 
  74:src/syscall_c.cpp **** int time_sleep(time_t time){
 620              		.loc 1 74 28 is_stmt 1
 621              		.cfi_startproc
 622              	.LVL64:
 623 038c 130101FE 		addi	sp,sp,-32
 624              		.cfi_def_cfa_offset 32
 625 0390 233C1100 		sd	ra,24(sp)
 626 0394 23388100 		sd	s0,16(sp)
 627              		.cfi_offset 1, -8
 628              		.cfi_offset 8, -16
 629 0398 13040102 		addi	s0,sp,32
 630              		.cfi_def_cfa 8, 0
 631 039c 2334A4FE 		sd	a0,-24(s0)
  75:src/syscall_c.cpp ****     Riscv::sysCall(0x31, &time, nullptr, nullptr, nullptr);
 632              		.loc 1 75 5
 633              		.loc 1 75 19 is_stmt 0
 634 03a0 13070000 		li	a4,0
 635 03a4 93060000 		li	a3,0
 636 03a8 13060000 		li	a2,0
 637 03ac 930584FE 		addi	a1,s0,-24
 638 03b0 13051003 		li	a0,49
 639              	.LVL65:
 640 03b4 97000000 		call	_ZN5Riscv7sysCallEmPvS0_S0_S0_@plt
 640      E7800000 
 641              	.LVL66:
  76:src/syscall_c.cpp ****     uint64 res = 0;
 642              		.loc 1 76 5 is_stmt 1
  77:src/syscall_c.cpp ****     __asm__ ("mv %[res], a0" : [res] "=r"(res));
 643              		.loc 1 77 5
 644              		.loc 1 77 48 is_stmt 0
 645              	#APP
 646              	# 77 "src/syscall_c.cpp" 1
  78              	    return res;
 647              		mv a0, a0
 648              	# 0 "" 2
 649              	.LVL67:
 650              		.loc 1 78 5 is_stmt 1
  79:src/syscall_c.cpp **** }
 651              		.loc 1 79 1 is_stmt 0
 652              	#NO_APP
 653 03c0 1B050500 		sext.w	a0,a0
 654              	.LVL68:
 655 03c4 83308101 		ld	ra,24(sp)
 656              		.cfi_restore 1
 657 03c8 03340101 		ld	s0,16(sp)
 658              		.cfi_restore 8
 659              		.cfi_def_cfa 2, 32
 660 03cc 13010102 		addi	sp,sp,32
 661              		.cfi_def_cfa_offset 0
 662 03d0 67800000 		jr	ra
 663              		.cfi_endproc
 664              	.LFE29:
 666              		.align	2
GAS LISTING /tmp/ccM0DL6P.s 			page 14


 667              		.globl	_Z4getcv
 669              	_Z4getcv:
 670              	.LFB30:
  80:src/syscall_c.cpp **** 
  81:src/syscall_c.cpp **** char getc(){
 671              		.loc 1 81 12 is_stmt 1
 672              		.cfi_startproc
 673 03d4 130101FF 		addi	sp,sp,-16
 674              		.cfi_def_cfa_offset 16
 675 03d8 23341100 		sd	ra,8(sp)
 676 03dc 23308100 		sd	s0,0(sp)
 677              		.cfi_offset 1, -8
 678              		.cfi_offset 8, -16
 679 03e0 13040101 		addi	s0,sp,16
 680              		.cfi_def_cfa 8, 0
  82:src/syscall_c.cpp ****     Riscv::sysCall(0x41, nullptr, nullptr, nullptr, nullptr);
 681              		.loc 1 82 5
 682              		.loc 1 82 19 is_stmt 0
 683 03e4 13070000 		li	a4,0
 684 03e8 93060000 		li	a3,0
 685 03ec 13060000 		li	a2,0
 686 03f0 93050000 		li	a1,0
 687 03f4 13051004 		li	a0,65
 688 03f8 97000000 		call	_ZN5Riscv7sysCallEmPvS0_S0_S0_@plt
 688      E7800000 
 689              	.LVL69:
  83:src/syscall_c.cpp ****     uint64 res = 0;
 690              		.loc 1 83 5 is_stmt 1
  84:src/syscall_c.cpp ****     __asm__ ("mv %[res], a0" : [res] "=r"(res));
 691              		.loc 1 84 5
 692              		.loc 1 84 48 is_stmt 0
 693              	#APP
 694              	# 84 "src/syscall_c.cpp" 1
  85              	    return res;
 695              		mv a0, a0
 696              	# 0 "" 2
 697              	.LVL70:
 698              		.loc 1 85 5 is_stmt 1
  86:src/syscall_c.cpp **** }
 699              		.loc 1 86 1 is_stmt 0
 700              	#NO_APP
 701 0404 1375F50F 		andi	a0,a0,0xff
 702              	.LVL71:
 703 0408 83308100 		ld	ra,8(sp)
 704              		.cfi_restore 1
 705 040c 03340100 		ld	s0,0(sp)
 706              		.cfi_restore 8
 707              		.cfi_def_cfa 2, 16
 708 0410 13010101 		addi	sp,sp,16
 709              		.cfi_def_cfa_offset 0
 710 0414 67800000 		jr	ra
 711              		.cfi_endproc
 712              	.LFE30:
 714              		.align	2
 715              		.globl	_Z4putcc
 717              	_Z4putcc:
 718              	.LFB31:
GAS LISTING /tmp/ccM0DL6P.s 			page 15


  87:src/syscall_c.cpp **** 
  88:src/syscall_c.cpp **** void putc(char c){
 719              		.loc 1 88 18 is_stmt 1
 720              		.cfi_startproc
 721              	.LVL72:
 722 0418 130101FE 		addi	sp,sp,-32
 723              		.cfi_def_cfa_offset 32
 724 041c 233C1100 		sd	ra,24(sp)
 725 0420 23388100 		sd	s0,16(sp)
 726              		.cfi_offset 1, -8
 727              		.cfi_offset 8, -16
 728 0424 13040102 		addi	s0,sp,32
 729              		.cfi_def_cfa 8, 0
 730 0428 A307A4FE 		sb	a0,-17(s0)
  89:src/syscall_c.cpp ****     Riscv::sysCall(0x42, &c, nullptr, nullptr, nullptr);
 731              		.loc 1 89 5
 732              		.loc 1 89 19 is_stmt 0
 733 042c 13070000 		li	a4,0
 734 0430 93060000 		li	a3,0
 735 0434 13060000 		li	a2,0
 736 0438 9305F4FE 		addi	a1,s0,-17
 737 043c 13052004 		li	a0,66
 738              	.LVL73:
 739 0440 97000000 		call	_ZN5Riscv7sysCallEmPvS0_S0_S0_@plt
 739      E7800000 
 740              	.LVL74:
  90:src/syscall_c.cpp **** }
 741              		.loc 1 90 1
 742 0448 83308101 		ld	ra,24(sp)
 743              		.cfi_restore 1
 744 044c 03340101 		ld	s0,16(sp)
 745              		.cfi_restore 8
 746              		.cfi_def_cfa 2, 32
 747 0450 13010102 		addi	sp,sp,32
 748              		.cfi_def_cfa_offset 0
 749 0454 67800000 		jr	ra
 750              		.cfi_endproc
 751              	.LFE31:
 753              		.align	2
 754              		.globl	_Z8userModev
 756              	_Z8userModev:
 757              	.LFB32:
  91:src/syscall_c.cpp **** 
  92:src/syscall_c.cpp **** void userMode(){
 758              		.loc 1 92 16 is_stmt 1
 759              		.cfi_startproc
 760 0458 130101FF 		addi	sp,sp,-16
 761              		.cfi_def_cfa_offset 16
 762 045c 23341100 		sd	ra,8(sp)
 763 0460 23308100 		sd	s0,0(sp)
 764              		.cfi_offset 1, -8
 765              		.cfi_offset 8, -16
 766 0464 13040101 		addi	s0,sp,16
 767              		.cfi_def_cfa 8, 0
  93:src/syscall_c.cpp ****     Riscv::sysCall(0x50, nullptr, nullptr, nullptr, nullptr);
 768              		.loc 1 93 5
 769              		.loc 1 93 19 is_stmt 0
GAS LISTING /tmp/ccM0DL6P.s 			page 16


 770 0468 13070000 		li	a4,0
 771 046c 93060000 		li	a3,0
 772 0470 13060000 		li	a2,0
 773 0474 93050000 		li	a1,0
 774 0478 13050005 		li	a0,80
 775 047c 97000000 		call	_ZN5Riscv7sysCallEmPvS0_S0_S0_@plt
 775      E7800000 
 776              	.LVL75:
  94:src/syscall_c.cpp **** 
  95:src/syscall_c.cpp **** }
 777              		.loc 1 95 1
 778 0484 83308100 		ld	ra,8(sp)
 779              		.cfi_restore 1
 780 0488 03340100 		ld	s0,0(sp)
 781              		.cfi_restore 8
 782              		.cfi_def_cfa 2, 16
 783 048c 13010101 		addi	sp,sp,16
 784              		.cfi_def_cfa_offset 0
 785 0490 67800000 		jr	ra
 786              		.cfi_endproc
 787              	.LFE32:
 789              		.align	2
 790              		.globl	_Z10kernelModev
 792              	_Z10kernelModev:
 793              	.LFB33:
  96:src/syscall_c.cpp **** 
  97:src/syscall_c.cpp **** void kernelMode(){
 794              		.loc 1 97 18 is_stmt 1
 795              		.cfi_startproc
 796 0494 130101FF 		addi	sp,sp,-16
 797              		.cfi_def_cfa_offset 16
 798 0498 23341100 		sd	ra,8(sp)
 799 049c 23308100 		sd	s0,0(sp)
 800              		.cfi_offset 1, -8
 801              		.cfi_offset 8, -16
 802 04a0 13040101 		addi	s0,sp,16
 803              		.cfi_def_cfa 8, 0
  98:src/syscall_c.cpp ****     Riscv::sysCall(0x51, nullptr, nullptr, nullptr, nullptr);
 804              		.loc 1 98 5
 805              		.loc 1 98 19 is_stmt 0
 806 04a4 13070000 		li	a4,0
 807 04a8 93060000 		li	a3,0
 808 04ac 13060000 		li	a2,0
 809 04b0 93050000 		li	a1,0
 810 04b4 13051005 		li	a0,81
 811 04b8 97000000 		call	_ZN5Riscv7sysCallEmPvS0_S0_S0_@plt
 811      E7800000 
 812              	.LVL76:
  99:src/syscall_c.cpp **** }
 813              		.loc 1 99 1
 814 04c0 83308100 		ld	ra,8(sp)
 815              		.cfi_restore 1
 816 04c4 03340100 		ld	s0,0(sp)
 817              		.cfi_restore 8
 818              		.cfi_def_cfa 2, 16
 819 04c8 13010101 		addi	sp,sp,16
 820              		.cfi_def_cfa_offset 0
GAS LISTING /tmp/ccM0DL6P.s 			page 17


 821 04cc 67800000 		jr	ra
 822              		.cfi_endproc
 823              	.LFE33:
 825              		.align	2
 826              		.globl	_Z6getIdCP7_thread
 828              	_Z6getIdCP7_thread:
 829              	.LFB34:
 100:src/syscall_c.cpp **** 
 101:src/syscall_c.cpp **** int getIdC(thread_t t){
 830              		.loc 1 101 23 is_stmt 1
 831              		.cfi_startproc
 832              	.LVL77:
 833 04d0 130101FF 		addi	sp,sp,-16
 834              		.cfi_def_cfa_offset 16
 835 04d4 23341100 		sd	ra,8(sp)
 836 04d8 23308100 		sd	s0,0(sp)
 837              		.cfi_offset 1, -8
 838              		.cfi_offset 8, -16
 839 04dc 13040101 		addi	s0,sp,16
 840              		.cfi_def_cfa 8, 0
 841 04e0 93050500 		mv	a1,a0
 102:src/syscall_c.cpp ****     Riscv::sysCall(0x60, t, nullptr, nullptr, nullptr);
 842              		.loc 1 102 5
 843              		.loc 1 102 19 is_stmt 0
 844 04e4 13070000 		li	a4,0
 845 04e8 93060000 		li	a3,0
 846 04ec 13060000 		li	a2,0
 847 04f0 13050006 		li	a0,96
 848              	.LVL78:
 849 04f4 97000000 		call	_ZN5Riscv7sysCallEmPvS0_S0_S0_@plt
 849      E7800000 
 850              	.LVL79:
 103:src/syscall_c.cpp ****     uint64 res = 0;
 851              		.loc 1 103 5 is_stmt 1
 104:src/syscall_c.cpp ****     __asm__ ("mv %[res], a0" : [res] "=r"(res));
 852              		.loc 1 104 5
 853              		.loc 1 104 48 is_stmt 0
 854              	#APP
 855              	# 104 "src/syscall_c.cpp" 1
 105              	    return res;
 856              		mv a0, a0
 857              	# 0 "" 2
 858              	.LVL80:
 859              		.loc 1 105 5 is_stmt 1
 106:src/syscall_c.cpp **** }...
 860              		.loc 1 106 1 is_stmt 0
 861              	#NO_APP
 862 0500 1B050500 		sext.w	a0,a0
 863              	.LVL81:
 864 0504 83308100 		ld	ra,8(sp)
 865              		.cfi_restore 1
 866 0508 03340100 		ld	s0,0(sp)
 867              		.cfi_restore 8
 868              		.cfi_def_cfa 2, 16
 869 050c 13010101 		addi	sp,sp,16
 870              		.cfi_def_cfa_offset 0
 871 0510 67800000 		jr	ra
GAS LISTING /tmp/ccM0DL6P.s 			page 18


 872              		.cfi_endproc
 873              	.LFE34:
 875              	.Letext0:
 876              		.file 2 "src/../h/../lib/hw.h"
 877              		.file 3 "src/../h/syscall_c.hpp"
 878              		.file 4 "src/../h/riscV.hpp"
GAS LISTING /tmp/ccM0DL6P.s 			page 19

