GAS LISTING /tmp/ccuqvJzk.s 			page 1


   1              		.file	"syscall_cpp.cpp"
   2              		.option pic
   3              		.option norelax
   4              		.text
   5              	.Ltext0:
   6              		.section	.text._ZN6ThreadD2Ev,"axG",@progbits,_ZN6ThreadD5Ev,comdat
   7              		.align	2
   8              		.weak	_ZN6ThreadD2Ev
  10              	_ZN6ThreadD2Ev:
  11              	.LFB39:
  12              		.file 1 "src/../h/syscall_cpp.hpp"
   1:src/../h/syscall_cpp.hpp **** #ifndef _syscall_cpp
   2:src/../h/syscall_cpp.hpp **** #define _syscall_cpp
   3:src/../h/syscall_cpp.hpp **** 
   4:src/../h/syscall_cpp.hpp **** #include "syscall_c.hpp"
   5:src/../h/syscall_cpp.hpp **** #include "thread.hpp"
   6:src/../h/syscall_cpp.hpp **** #include "../lib/console.h"
   7:src/../h/syscall_cpp.hpp **** 
   8:src/../h/syscall_cpp.hpp **** 
   9:src/../h/syscall_cpp.hpp **** void* operator new (size_t);
  10:src/../h/syscall_cpp.hpp **** void* operator new[](size_t);
  11:src/../h/syscall_cpp.hpp **** void operator delete (void*);
  12:src/../h/syscall_cpp.hpp **** void operator delete[](void*);
  13:src/../h/syscall_cpp.hpp **** 
  14:src/../h/syscall_cpp.hpp **** class Thread{
  15:src/../h/syscall_cpp.hpp **** public:
  16:src/../h/syscall_cpp.hpp ****     Thread(void (*body)(void*), void* arg){
  17:src/../h/syscall_cpp.hpp ****         thread_create_cpp(&myHandle, body, arg);
  18:src/../h/syscall_cpp.hpp ****     }
  19:src/../h/syscall_cpp.hpp **** 
  20:src/../h/syscall_cpp.hpp ****     virtual ~Thread(){}
  13              		.loc 1 20 13
  14              		.cfi_startproc
  15              	.LVL0:
  16 0000 130101FF 		addi	sp,sp,-16
  17              		.cfi_def_cfa_offset 16
  18 0004 23348100 		sd	s0,8(sp)
  19              		.cfi_offset 8, -8
  20 0008 13040101 		addi	s0,sp,16
  21              		.cfi_def_cfa 8, 0
  22              		.loc 1 20 23 is_stmt 0
  23 000c 03348100 		ld	s0,8(sp)
  24              		.cfi_restore 8
  25              		.cfi_def_cfa 2, 16
  26 0010 13010101 		addi	sp,sp,16
  27              		.cfi_def_cfa_offset 0
  28 0014 67800000 		jr	ra
  29              		.cfi_endproc
  30              	.LFE39:
  32              		.weak	_ZN6ThreadD1Ev
  33              		.set	_ZN6ThreadD1Ev,_ZN6ThreadD2Ev
  34              		.section	.text._ZN6Thread3runEv,"axG",@progbits,_ZN6Thread3runEv,comdat
  35              		.align	2
  36              		.weak	_ZN6Thread3runEv
  38              	_ZN6Thread3runEv:
  39              	.LFB45:
  21:src/../h/syscall_cpp.hpp **** 
GAS LISTING /tmp/ccuqvJzk.s 			page 2


  22:src/../h/syscall_cpp.hpp ****     void start();
  23:src/../h/syscall_cpp.hpp **** 
  24:src/../h/syscall_cpp.hpp ****     static void dispatch();
  25:src/../h/syscall_cpp.hpp ****     static void sleep(time_t);
  26:src/../h/syscall_cpp.hpp **** 
  27:src/../h/syscall_cpp.hpp **** protected:
  28:src/../h/syscall_cpp.hpp ****     Thread(){
  29:src/../h/syscall_cpp.hpp ****         thread_create_cpp(&myHandle, runWrapper, this);
  30:src/../h/syscall_cpp.hpp ****     }
  31:src/../h/syscall_cpp.hpp ****     virtual void run(){}
  40              		.loc 1 31 18 is_stmt 1
  41              		.cfi_startproc
  42              	.LVL1:
  43 0000 130101FF 		addi	sp,sp,-16
  44              		.cfi_def_cfa_offset 16
  45 0004 23348100 		sd	s0,8(sp)
  46              		.cfi_offset 8, -8
  47 0008 13040101 		addi	s0,sp,16
  48              		.cfi_def_cfa 8, 0
  49              		.loc 1 31 24 is_stmt 0
  50 000c 03348100 		ld	s0,8(sp)
  51              		.cfi_restore 8
  52              		.cfi_def_cfa 2, 16
  53 0010 13010101 		addi	sp,sp,16
  54              		.cfi_def_cfa_offset 0
  55 0014 67800000 		jr	ra
  56              		.cfi_endproc
  57              	.LFE45:
  59              		.section	.text._ZN14PeriodicThread18periodicActivationEv,"axG",@progbits,_ZN14PeriodicThread18peri
  60              		.align	2
  61              		.weak	_ZN14PeriodicThread18periodicActivationEv
  63              	_ZN14PeriodicThread18periodicActivationEv:
  64              	.LFB53:
  32:src/../h/syscall_cpp.hpp **** private:
  33:src/../h/syscall_cpp.hpp ****     static void runWrapper(void*);
  34:src/../h/syscall_cpp.hpp ****     thread_t myHandle;
  35:src/../h/syscall_cpp.hpp **** };
  36:src/../h/syscall_cpp.hpp **** 
  37:src/../h/syscall_cpp.hpp **** class Semaphore{
  38:src/../h/syscall_cpp.hpp **** public:
  39:src/../h/syscall_cpp.hpp ****     Semaphore(unsigned init = 1){
  40:src/../h/syscall_cpp.hpp ****         sem_open(&myHandle, init);
  41:src/../h/syscall_cpp.hpp ****     }
  42:src/../h/syscall_cpp.hpp ****     virtual ~Semaphore(){
  43:src/../h/syscall_cpp.hpp ****         sem_close(myHandle);
  44:src/../h/syscall_cpp.hpp ****     }
  45:src/../h/syscall_cpp.hpp **** 
  46:src/../h/syscall_cpp.hpp ****     void wait();
  47:src/../h/syscall_cpp.hpp ****     void signal();
  48:src/../h/syscall_cpp.hpp **** 
  49:src/../h/syscall_cpp.hpp **** private:
  50:src/../h/syscall_cpp.hpp ****     sem_t myHandle;
  51:src/../h/syscall_cpp.hpp **** };
  52:src/../h/syscall_cpp.hpp **** 
  53:src/../h/syscall_cpp.hpp **** class PeriodicThread : public Thread{
  54:src/../h/syscall_cpp.hpp **** protected:
  55:src/../h/syscall_cpp.hpp ****     PeriodicThread (time_t period);
GAS LISTING /tmp/ccuqvJzk.s 			page 3


  56:src/../h/syscall_cpp.hpp ****     virtual void periodicActivation(){}
  65              		.loc 1 56 18 is_stmt 1
  66              		.cfi_startproc
  67              	.LVL2:
  68 0000 130101FF 		addi	sp,sp,-16
  69              		.cfi_def_cfa_offset 16
  70 0004 23348100 		sd	s0,8(sp)
  71              		.cfi_offset 8, -8
  72 0008 13040101 		addi	s0,sp,16
  73              		.cfi_def_cfa 8, 0
  74              		.loc 1 56 39 is_stmt 0
  75 000c 03348100 		ld	s0,8(sp)
  76              		.cfi_restore 8
  77              		.cfi_def_cfa 2, 16
  78 0010 13010101 		addi	sp,sp,16
  79              		.cfi_def_cfa_offset 0
  80 0014 67800000 		jr	ra
  81              		.cfi_endproc
  82              	.LFE53:
  84              		.section	.text._ZN14PeriodicThreadD2Ev,"axG",@progbits,_ZN14PeriodicThreadD5Ev,comdat
  85              		.align	2
  86              		.weak	_ZN14PeriodicThreadD2Ev
  88              	_ZN14PeriodicThreadD2Ev:
  89              	.LFB74:
  53:src/../h/syscall_cpp.hpp **** protected:
  90              		.loc 1 53 7 is_stmt 1
  91              		.cfi_startproc
  92              	.LVL3:
  93 0000 130101FF 		addi	sp,sp,-16
  94              		.cfi_def_cfa_offset 16
  95 0004 23348100 		sd	s0,8(sp)
  96              		.cfi_offset 8, -8
  97 0008 13040101 		addi	s0,sp,16
  98              		.cfi_def_cfa 8, 0
  53:src/../h/syscall_cpp.hpp **** protected:
  99              		.loc 1 53 7 is_stmt 0
 100 000c 03348100 		ld	s0,8(sp)
 101              		.cfi_restore 8
 102              		.cfi_def_cfa 2, 16
 103 0010 13010101 		addi	sp,sp,16
 104              		.cfi_def_cfa_offset 0
 105 0014 67800000 		jr	ra
 106              		.cfi_endproc
 107              	.LFE74:
 109              		.weak	_ZN14PeriodicThreadD1Ev
 110              		.set	_ZN14PeriodicThreadD1Ev,_ZN14PeriodicThreadD2Ev
 111              		.text
 112              		.align	2
 113              		.globl	_Znwm
 115              	_Znwm:
 116              	.LFB57:
 117              		.file 2 "src/syscall_cpp.cpp"
   1:src/syscall_cpp.cpp **** #include "../h/syscall_cpp.hpp"
   2:src/syscall_cpp.cpp **** 
   3:src/syscall_cpp.cpp **** void *operator new(size_t n) { return mem_alloc(n); }
 118              		.loc 2 3 30 is_stmt 1
 119              		.cfi_startproc
GAS LISTING /tmp/ccuqvJzk.s 			page 4


 120              	.LVL4:
 121 0000 130101FF 		addi	sp,sp,-16
 122              		.cfi_def_cfa_offset 16
 123 0004 23341100 		sd	ra,8(sp)
 124 0008 23308100 		sd	s0,0(sp)
 125              		.cfi_offset 1, -8
 126              		.cfi_offset 8, -16
 127 000c 13040101 		addi	s0,sp,16
 128              		.cfi_def_cfa 8, 0
 129              		.loc 2 3 32
 130              		.loc 2 3 48 is_stmt 0
 131 0010 97000000 		call	_Z9mem_allocm@plt
 131      E7800000 
 132              	.LVL5:
 133              		.loc 2 3 53
 134 0018 83308100 		ld	ra,8(sp)
 135              		.cfi_restore 1
 136 001c 03340100 		ld	s0,0(sp)
 137              		.cfi_restore 8
 138              		.cfi_def_cfa 2, 16
 139 0020 13010101 		addi	sp,sp,16
 140              		.cfi_def_cfa_offset 0
 141 0024 67800000 		jr	ra
 142              		.cfi_endproc
 143              	.LFE57:
 145              		.align	2
 146              		.globl	_Znam
 148              	_Znam:
 149              	.LFB58:
   4:src/syscall_cpp.cpp **** void *operator new[](size_t n) { return mem_alloc(n); }
 150              		.loc 2 4 32 is_stmt 1
 151              		.cfi_startproc
 152              	.LVL6:
 153 0028 130101FF 		addi	sp,sp,-16
 154              		.cfi_def_cfa_offset 16
 155 002c 23341100 		sd	ra,8(sp)
 156 0030 23308100 		sd	s0,0(sp)
 157              		.cfi_offset 1, -8
 158              		.cfi_offset 8, -16
 159 0034 13040101 		addi	s0,sp,16
 160              		.cfi_def_cfa 8, 0
 161              		.loc 2 4 34
 162              		.loc 2 4 50 is_stmt 0
 163 0038 97000000 		call	_Z9mem_allocm@plt
 163      E7800000 
 164              	.LVL7:
 165              		.loc 2 4 55
 166 0040 83308100 		ld	ra,8(sp)
 167              		.cfi_restore 1
 168 0044 03340100 		ld	s0,0(sp)
 169              		.cfi_restore 8
 170              		.cfi_def_cfa 2, 16
 171 0048 13010101 		addi	sp,sp,16
 172              		.cfi_def_cfa_offset 0
 173 004c 67800000 		jr	ra
 174              		.cfi_endproc
 175              	.LFE58:
GAS LISTING /tmp/ccuqvJzk.s 			page 5


 177              		.align	2
 178              		.globl	_ZdlPv
 180              	_ZdlPv:
 181              	.LFB59:
   5:src/syscall_cpp.cpp **** void operator delete(void *p) { mem_free(p); }
 182              		.loc 2 5 31 is_stmt 1
 183              		.cfi_startproc
 184              	.LVL8:
 185 0050 130101FF 		addi	sp,sp,-16
 186              		.cfi_def_cfa_offset 16
 187 0054 23341100 		sd	ra,8(sp)
 188 0058 23308100 		sd	s0,0(sp)
 189              		.cfi_offset 1, -8
 190              		.cfi_offset 8, -16
 191 005c 13040101 		addi	s0,sp,16
 192              		.cfi_def_cfa 8, 0
 193              		.loc 2 5 33
 194              		.loc 2 5 41 is_stmt 0
 195 0060 97000000 		call	_Z8mem_freePv@plt
 195      E7800000 
 196              	.LVL9:
 197              		.loc 2 5 46
 198 0068 83308100 		ld	ra,8(sp)
 199              		.cfi_restore 1
 200 006c 03340100 		ld	s0,0(sp)
 201              		.cfi_restore 8
 202              		.cfi_def_cfa 2, 16
 203 0070 13010101 		addi	sp,sp,16
 204              		.cfi_def_cfa_offset 0
 205 0074 67800000 		jr	ra
 206              		.cfi_endproc
 207              	.LFE59:
 209              		.section	.text._ZN14PeriodicThreadD0Ev,"axG",@progbits,_ZN14PeriodicThreadD5Ev,comdat
 210              		.align	2
 211              		.weak	_ZN14PeriodicThreadD0Ev
 213              	_ZN14PeriodicThreadD0Ev:
 214              	.LFB76:
  53:src/../h/syscall_cpp.hpp **** protected:
 215              		.loc 1 53 7 is_stmt 1
 216              		.cfi_startproc
 217              	.LVL10:
 218 0000 130101FF 		addi	sp,sp,-16
 219              		.cfi_def_cfa_offset 16
 220 0004 23341100 		sd	ra,8(sp)
 221 0008 23308100 		sd	s0,0(sp)
 222              		.cfi_offset 1, -8
 223              		.cfi_offset 8, -16
 224 000c 13040101 		addi	s0,sp,16
 225              		.cfi_def_cfa 8, 0
  53:src/../h/syscall_cpp.hpp **** protected:
 226              		.loc 1 53 7 is_stmt 0
 227 0010 97000000 		call	_ZdlPv
 227      E7800000 
 228              	.LVL11:
 229 0018 83308100 		ld	ra,8(sp)
 230              		.cfi_restore 1
 231 001c 03340100 		ld	s0,0(sp)
GAS LISTING /tmp/ccuqvJzk.s 			page 6


 232              		.cfi_restore 8
 233              		.cfi_def_cfa 2, 16
 234 0020 13010101 		addi	sp,sp,16
 235              		.cfi_def_cfa_offset 0
 236 0024 67800000 		jr	ra
 237              		.cfi_endproc
 238              	.LFE76:
 240              		.section	.text._ZN6ThreadD0Ev,"axG",@progbits,_ZN6ThreadD5Ev,comdat
 241              		.align	2
 242              		.weak	_ZN6ThreadD0Ev
 244              	_ZN6ThreadD0Ev:
 245              	.LFB41:
  20:src/../h/syscall_cpp.hpp **** 
 246              		.loc 1 20 13 is_stmt 1
 247              		.cfi_startproc
 248              	.LVL12:
 249 0000 130101FF 		addi	sp,sp,-16
 250              		.cfi_def_cfa_offset 16
 251 0004 23341100 		sd	ra,8(sp)
 252 0008 23308100 		sd	s0,0(sp)
 253              		.cfi_offset 1, -8
 254              		.cfi_offset 8, -16
 255 000c 13040101 		addi	s0,sp,16
 256              		.cfi_def_cfa 8, 0
  20:src/../h/syscall_cpp.hpp **** 
 257              		.loc 1 20 23 is_stmt 0
 258 0010 97000000 		call	_ZdlPv
 258      E7800000 
 259              	.LVL13:
 260 0018 83308100 		ld	ra,8(sp)
 261              		.cfi_restore 1
 262 001c 03340100 		ld	s0,0(sp)
 263              		.cfi_restore 8
 264              		.cfi_def_cfa 2, 16
 265 0020 13010101 		addi	sp,sp,16
 266              		.cfi_def_cfa_offset 0
 267 0024 67800000 		jr	ra
 268              		.cfi_endproc
 269              	.LFE41:
 271              		.text
 272              		.align	2
 273              		.globl	_ZdaPv
 275              	_ZdaPv:
 276              	.LFB60:
   6:src/syscall_cpp.cpp **** void operator delete[](void *p) { mem_free(p); }
 277              		.loc 2 6 33 is_stmt 1
 278              		.cfi_startproc
 279              	.LVL14:
 280 0078 130101FF 		addi	sp,sp,-16
 281              		.cfi_def_cfa_offset 16
 282 007c 23341100 		sd	ra,8(sp)
 283 0080 23308100 		sd	s0,0(sp)
 284              		.cfi_offset 1, -8
 285              		.cfi_offset 8, -16
 286 0084 13040101 		addi	s0,sp,16
 287              		.cfi_def_cfa 8, 0
 288              		.loc 2 6 35
GAS LISTING /tmp/ccuqvJzk.s 			page 7


 289              		.loc 2 6 43 is_stmt 0
 290 0088 97000000 		call	_Z8mem_freePv@plt
 290      E7800000 
 291              	.LVL15:
 292              		.loc 2 6 48
 293 0090 83308100 		ld	ra,8(sp)
 294              		.cfi_restore 1
 295 0094 03340100 		ld	s0,0(sp)
 296              		.cfi_restore 8
 297              		.cfi_def_cfa 2, 16
 298 0098 13010101 		addi	sp,sp,16
 299              		.cfi_def_cfa_offset 0
 300 009c 67800000 		jr	ra
 301              		.cfi_endproc
 302              	.LFE60:
 304              		.align	2
 305              		.globl	_ZN6Thread8dispatchEv
 307              	_ZN6Thread8dispatchEv:
 308              	.LFB61:
   7:src/syscall_cpp.cpp **** 
   8:src/syscall_cpp.cpp **** 
   9:src/syscall_cpp.cpp **** void Thread::dispatch() {
 309              		.loc 2 9 25 is_stmt 1
 310              		.cfi_startproc
 311 00a0 130101FF 		addi	sp,sp,-16
 312              		.cfi_def_cfa_offset 16
 313 00a4 23341100 		sd	ra,8(sp)
 314 00a8 23308100 		sd	s0,0(sp)
 315              		.cfi_offset 1, -8
 316              		.cfi_offset 8, -16
 317 00ac 13040101 		addi	s0,sp,16
 318              		.cfi_def_cfa 8, 0
  10:src/syscall_cpp.cpp ****     thread_dispatch();
 319              		.loc 2 10 5
 320              		.loc 2 10 20 is_stmt 0
 321 00b0 97000000 		call	_Z15thread_dispatchv@plt
 321      E7800000 
 322              	.LVL16:
  11:src/syscall_cpp.cpp **** }
 323              		.loc 2 11 1
 324 00b8 83308100 		ld	ra,8(sp)
 325              		.cfi_restore 1
 326 00bc 03340100 		ld	s0,0(sp)
 327              		.cfi_restore 8
 328              		.cfi_def_cfa 2, 16
 329 00c0 13010101 		addi	sp,sp,16
 330              		.cfi_def_cfa_offset 0
 331 00c4 67800000 		jr	ra
 332              		.cfi_endproc
 333              	.LFE61:
 335              		.align	2
 336              		.globl	_ZN6Thread5startEv
 338              	_ZN6Thread5startEv:
 339              	.LFB62:
  12:src/syscall_cpp.cpp **** 
  13:src/syscall_cpp.cpp **** void Thread::start() {
 340              		.loc 2 13 22 is_stmt 1
GAS LISTING /tmp/ccuqvJzk.s 			page 8


 341              		.cfi_startproc
 342              	.LVL17:
 343 00c8 130101FF 		addi	sp,sp,-16
 344              		.cfi_def_cfa_offset 16
 345 00cc 23341100 		sd	ra,8(sp)
 346 00d0 23308100 		sd	s0,0(sp)
 347              		.cfi_offset 1, -8
 348              		.cfi_offset 8, -16
 349 00d4 13040101 		addi	s0,sp,16
 350              		.cfi_def_cfa 8, 0
  14:src/syscall_cpp.cpp ****     addScheduler(myHandle);
 351              		.loc 2 14 5
 352              		.loc 2 14 17 is_stmt 0
 353 00d8 03358500 		ld	a0,8(a0)
 354              	.LVL18:
 355 00dc 97000000 		call	_Z12addSchedulerP7_thread@plt
 355      E7800000 
 356              	.LVL19:
  15:src/syscall_cpp.cpp **** }
 357              		.loc 2 15 1
 358 00e4 83308100 		ld	ra,8(sp)
 359              		.cfi_restore 1
 360 00e8 03340100 		ld	s0,0(sp)
 361              		.cfi_restore 8
 362              		.cfi_def_cfa 2, 16
 363 00ec 13010101 		addi	sp,sp,16
 364              		.cfi_def_cfa_offset 0
 365 00f0 67800000 		jr	ra
 366              		.cfi_endproc
 367              	.LFE62:
 369              		.align	2
 370              		.globl	_ZN6Thread5sleepEm
 372              	_ZN6Thread5sleepEm:
 373              	.LFB63:
  16:src/syscall_cpp.cpp **** 
  17:src/syscall_cpp.cpp **** void Thread::sleep(time_t t) {
 374              		.loc 2 17 30 is_stmt 1
 375              		.cfi_startproc
 376              	.LVL20:
 377 00f4 130101FF 		addi	sp,sp,-16
 378              		.cfi_def_cfa_offset 16
 379 00f8 23341100 		sd	ra,8(sp)
 380 00fc 23308100 		sd	s0,0(sp)
 381              		.cfi_offset 1, -8
 382              		.cfi_offset 8, -16
 383 0100 13040101 		addi	s0,sp,16
 384              		.cfi_def_cfa 8, 0
  18:src/syscall_cpp.cpp ****     time_sleep(t);
 385              		.loc 2 18 5
 386              		.loc 2 18 15 is_stmt 0
 387 0104 97000000 		call	_Z10time_sleepm@plt
 387      E7800000 
 388              	.LVL21:
  19:src/syscall_cpp.cpp **** }
 389              		.loc 2 19 1
 390 010c 83308100 		ld	ra,8(sp)
 391              		.cfi_restore 1
GAS LISTING /tmp/ccuqvJzk.s 			page 9


 392 0110 03340100 		ld	s0,0(sp)
 393              		.cfi_restore 8
 394              		.cfi_def_cfa 2, 16
 395 0114 13010101 		addi	sp,sp,16
 396              		.cfi_def_cfa_offset 0
 397 0118 67800000 		jr	ra
 398              		.cfi_endproc
 399              	.LFE63:
 401              		.align	2
 402              		.globl	_ZN14PeriodicThread7wrapperEPv
 404              	_ZN14PeriodicThread7wrapperEPv:
 405              	.LFB70:
  20:src/syscall_cpp.cpp **** 
  21:src/syscall_cpp.cpp **** void Thread::runWrapper(void *arg) {
  22:src/syscall_cpp.cpp ****     if(arg!=nullptr){
  23:src/syscall_cpp.cpp ****         Thread* t = (Thread*) arg;
  24:src/syscall_cpp.cpp ****         t->run();
  25:src/syscall_cpp.cpp ****     }
  26:src/syscall_cpp.cpp **** }
  27:src/syscall_cpp.cpp **** 
  28:src/syscall_cpp.cpp **** 
  29:src/syscall_cpp.cpp **** void Semaphore::wait() {
  30:src/syscall_cpp.cpp ****     sem_wait(myHandle);
  31:src/syscall_cpp.cpp **** }
  32:src/syscall_cpp.cpp **** void Semaphore::signal() {
  33:src/syscall_cpp.cpp ****     sem_signal(myHandle);
  34:src/syscall_cpp.cpp **** }
  35:src/syscall_cpp.cpp **** 
  36:src/syscall_cpp.cpp **** PeriodicThread::PeriodicThread(time_t period) : Thread(wrapper, new Elem(period, this)){
  37:src/syscall_cpp.cpp ****     flag = true;
  38:src/syscall_cpp.cpp **** }
  39:src/syscall_cpp.cpp **** 
  40:src/syscall_cpp.cpp **** void PeriodicThread::wrapper(void *arg) {
 406              		.loc 2 40 41 is_stmt 1
 407              		.cfi_startproc
 408              	.LVL22:
 409 011c 130101FE 		addi	sp,sp,-32
 410              		.cfi_def_cfa_offset 32
 411 0120 233C1100 		sd	ra,24(sp)
 412 0124 23388100 		sd	s0,16(sp)
 413 0128 23349100 		sd	s1,8(sp)
 414 012c 23302101 		sd	s2,0(sp)
 415              		.cfi_offset 1, -8
 416              		.cfi_offset 8, -16
 417              		.cfi_offset 9, -24
 418              		.cfi_offset 18, -32
 419 0130 13040102 		addi	s0,sp,32
 420              		.cfi_def_cfa 8, 0
  41:src/syscall_cpp.cpp ****     Elem* elem = (Elem*) arg;
 421              		.loc 2 41 5
 422              	.LVL23:
  42:src/syscall_cpp.cpp ****     time_t time = elem->time;
 423              		.loc 2 42 5
 424              		.loc 2 42 12 is_stmt 0
 425 0134 03390500 		ld	s2,0(a0)
 426              	.LVL24:
  43:src/syscall_cpp.cpp ****     PeriodicThread* thr = elem->thread;
GAS LISTING /tmp/ccuqvJzk.s 			page 10


 427              		.loc 2 43 5 is_stmt 1
 428              		.loc 2 43 21 is_stmt 0
 429 0138 83348500 		ld	s1,8(a0)
 430              	.LVL25:
 431              	.L29:
  44:src/syscall_cpp.cpp ****     while(thr->flag){
 432              		.loc 2 44 5 is_stmt 1
 433              		.loc 2 44 16
 434 013c 83C70401 		lbu	a5,16(s1)
 435 0140 63820702 		beqz	a5,.L27
  45:src/syscall_cpp.cpp ****         thr->periodicActivation();
 436              		.loc 2 45 9
 437              		.loc 2 45 33 is_stmt 0
 438 0144 83B70400 		ld	a5,0(s1)
 439 0148 83B78701 		ld	a5,24(a5)
 440              		.loc 2 45 32
 441 014c 13850400 		mv	a0,s1
 442 0150 E7800700 		jalr	a5
 443              	.LVL26:
  46:src/syscall_cpp.cpp ****         sleep(time);
 444              		.loc 2 46 9 is_stmt 1
 445              		.loc 2 46 14 is_stmt 0
 446 0154 13050900 		mv	a0,s2
 447 0158 97000000 		call	_ZN6Thread5sleepEm
 447      E7800000 
 448              	.LVL27:
  44:src/syscall_cpp.cpp ****     while(thr->flag){
 449              		.loc 2 44 5
 450 0160 6FF0DFFD 		j	.L29
 451              	.L27:
  47:src/syscall_cpp.cpp ****     }
  48:src/syscall_cpp.cpp **** }
 452              		.loc 2 48 1
 453 0164 83308101 		ld	ra,24(sp)
 454              		.cfi_restore 1
 455 0168 03340101 		ld	s0,16(sp)
 456              		.cfi_restore 8
 457              		.cfi_def_cfa 2, 32
 458 016c 83348100 		ld	s1,8(sp)
 459              		.cfi_restore 9
 460              	.LVL28:
 461 0170 03390100 		ld	s2,0(sp)
 462              		.cfi_restore 18
 463              	.LVL29:
 464 0174 13010102 		addi	sp,sp,32
 465              		.cfi_def_cfa_offset 0
 466 0178 67800000 		jr	ra
 467              		.cfi_endproc
 468              	.LFE70:
 470              		.align	2
 471              		.globl	_ZN6Thread10runWrapperEPv
 473              	_ZN6Thread10runWrapperEPv:
 474              	.LFB64:
  21:src/syscall_cpp.cpp ****     if(arg!=nullptr){
 475              		.loc 2 21 36 is_stmt 1
 476              		.cfi_startproc
 477              	.LVL30:
GAS LISTING /tmp/ccuqvJzk.s 			page 11


  22:src/syscall_cpp.cpp ****         Thread* t = (Thread*) arg;
 478              		.loc 2 22 5
 479              	.LBB20:
 480 017c 63080502 		beqz	a0,.L34
 481              	.LBE20:
  21:src/syscall_cpp.cpp ****     if(arg!=nullptr){
 482              		.loc 2 21 36 is_stmt 0
 483 0180 130101FF 		addi	sp,sp,-16
 484              		.cfi_def_cfa_offset 16
 485 0184 23341100 		sd	ra,8(sp)
 486 0188 23308100 		sd	s0,0(sp)
 487              		.cfi_offset 1, -8
 488              		.cfi_offset 8, -16
 489 018c 13040101 		addi	s0,sp,16
 490              		.cfi_def_cfa 8, 0
 491              	.LBB22:
 492              	.LBB21:
  23:src/syscall_cpp.cpp ****         t->run();
 493              		.loc 2 23 9 is_stmt 1
 494              	.LVL31:
  24:src/syscall_cpp.cpp ****     }
 495              		.loc 2 24 9
  24:src/syscall_cpp.cpp ****     }
 496              		.loc 2 24 16 is_stmt 0
 497 0190 83370500 		ld	a5,0(a0)
 498 0194 83B70701 		ld	a5,16(a5)
  24:src/syscall_cpp.cpp ****     }
 499              		.loc 2 24 15
 500 0198 E7800700 		jalr	a5
 501              	.LVL32:
 502              	.LBE21:
 503              	.LBE22:
  26:src/syscall_cpp.cpp **** 
 504              		.loc 2 26 1
 505 019c 83308100 		ld	ra,8(sp)
 506              		.cfi_restore 1
 507 01a0 03340100 		ld	s0,0(sp)
 508              		.cfi_restore 8
 509              		.cfi_def_cfa 2, 16
 510 01a4 13010101 		addi	sp,sp,16
 511              		.cfi_def_cfa_offset 0
 512 01a8 67800000 		jr	ra
 513              	.LVL33:
 514              	.L34:
 515 01ac 67800000 		ret
 516              		.cfi_endproc
 517              	.LFE64:
 519              		.align	2
 520              		.globl	_ZN9Semaphore4waitEv
 522              	_ZN9Semaphore4waitEv:
 523              	.LFB65:
  29:src/syscall_cpp.cpp ****     sem_wait(myHandle);
 524              		.loc 2 29 24 is_stmt 1
 525              		.cfi_startproc
 526              	.LVL34:
 527 01b0 130101FF 		addi	sp,sp,-16
 528              		.cfi_def_cfa_offset 16
GAS LISTING /tmp/ccuqvJzk.s 			page 12


 529 01b4 23341100 		sd	ra,8(sp)
 530 01b8 23308100 		sd	s0,0(sp)
 531              		.cfi_offset 1, -8
 532              		.cfi_offset 8, -16
 533 01bc 13040101 		addi	s0,sp,16
 534              		.cfi_def_cfa 8, 0
  30:src/syscall_cpp.cpp **** }
 535              		.loc 2 30 5
  30:src/syscall_cpp.cpp **** }
 536              		.loc 2 30 13 is_stmt 0
 537 01c0 03358500 		ld	a0,8(a0)
 538              	.LVL35:
 539 01c4 97000000 		call	_Z8sem_waitP4_sem@plt
 539      E7800000 
 540              	.LVL36:
  31:src/syscall_cpp.cpp **** void Semaphore::signal() {
 541              		.loc 2 31 1
 542 01cc 83308100 		ld	ra,8(sp)
 543              		.cfi_restore 1
 544 01d0 03340100 		ld	s0,0(sp)
 545              		.cfi_restore 8
 546              		.cfi_def_cfa 2, 16
 547 01d4 13010101 		addi	sp,sp,16
 548              		.cfi_def_cfa_offset 0
 549 01d8 67800000 		jr	ra
 550              		.cfi_endproc
 551              	.LFE65:
 553              		.align	2
 554              		.globl	_ZN9Semaphore6signalEv
 556              	_ZN9Semaphore6signalEv:
 557              	.LFB66:
  32:src/syscall_cpp.cpp ****     sem_signal(myHandle);
 558              		.loc 2 32 26 is_stmt 1
 559              		.cfi_startproc
 560              	.LVL37:
 561 01dc 130101FF 		addi	sp,sp,-16
 562              		.cfi_def_cfa_offset 16
 563 01e0 23341100 		sd	ra,8(sp)
 564 01e4 23308100 		sd	s0,0(sp)
 565              		.cfi_offset 1, -8
 566              		.cfi_offset 8, -16
 567 01e8 13040101 		addi	s0,sp,16
 568              		.cfi_def_cfa 8, 0
  33:src/syscall_cpp.cpp **** }
 569              		.loc 2 33 5
  33:src/syscall_cpp.cpp **** }
 570              		.loc 2 33 15 is_stmt 0
 571 01ec 03358500 		ld	a0,8(a0)
 572              	.LVL38:
 573 01f0 97000000 		call	_Z10sem_signalP4_sem@plt
 573      E7800000 
 574              	.LVL39:
  34:src/syscall_cpp.cpp **** 
 575              		.loc 2 34 1
 576 01f8 83308100 		ld	ra,8(sp)
 577              		.cfi_restore 1
 578 01fc 03340100 		ld	s0,0(sp)
GAS LISTING /tmp/ccuqvJzk.s 			page 13


 579              		.cfi_restore 8
 580              		.cfi_def_cfa 2, 16
 581 0200 13010101 		addi	sp,sp,16
 582              		.cfi_def_cfa_offset 0
 583 0204 67800000 		jr	ra
 584              		.cfi_endproc
 585              	.LFE66:
 587              		.align	2
 588              		.globl	_ZN14PeriodicThreadC2Em
 590              	_ZN14PeriodicThreadC2Em:
 591              	.LFB68:
  36:src/syscall_cpp.cpp ****     flag = true;
 592              		.loc 2 36 1 is_stmt 1
 593              		.cfi_startproc
 594              	.LVL40:
 595 0208 130101FE 		addi	sp,sp,-32
 596              		.cfi_def_cfa_offset 32
 597 020c 233C1100 		sd	ra,24(sp)
 598 0210 23388100 		sd	s0,16(sp)
 599 0214 23349100 		sd	s1,8(sp)
 600 0218 23302101 		sd	s2,0(sp)
 601              		.cfi_offset 1, -8
 602              		.cfi_offset 8, -16
 603              		.cfi_offset 9, -24
 604              		.cfi_offset 18, -32
 605 021c 13040102 		addi	s0,sp,32
 606              		.cfi_def_cfa 8, 0
 607 0220 93040500 		mv	s1,a0
 608 0224 13890500 		mv	s2,a1
 609              	.LBB23:
  36:src/syscall_cpp.cpp ****     flag = true;
 610              		.loc 2 36 86 is_stmt 0
 611 0228 13050001 		li	a0,16
 612              	.LVL41:
 613 022c 97000000 		call	_Znwm
 613      E7800000 
 614              	.LVL42:
 615 0234 13060500 		mv	a2,a0
 616              	.LVL43:
 617              	.LBB24:
 618              	.LBB25:
  57:src/../h/syscall_cpp.hpp **** 
  58:src/../h/syscall_cpp.hpp **** private:
  59:src/../h/syscall_cpp.hpp ****     struct Elem{
  60:src/../h/syscall_cpp.hpp ****         time_t time;
  61:src/../h/syscall_cpp.hpp ****         PeriodicThread* thread;
  62:src/../h/syscall_cpp.hpp ****         Elem(time_t t, PeriodicThread*thr) : time(t), thread(thr) {}
 619              		.loc 1 62 65
 620 0238 23302501 		sd	s2,0(a0)
 621 023c 23349500 		sd	s1,8(a0)
 622              	.LVL44:
 623              	.LBE25:
 624              	.LBE24:
 625              	.LBB26:
 626              	.LBB27:
  16:src/../h/syscall_cpp.hpp ****         thread_create_cpp(&myHandle, body, arg);
 627              		.loc 1 16 43
GAS LISTING /tmp/ccuqvJzk.s 			page 14


 628 0240 97070000 		lla	a5,_ZTV6Thread+16
 628      93870700 
 629 0248 23B0F400 		sd	a5,0(s1)
  17:src/../h/syscall_cpp.hpp ****     }
 630              		.loc 1 17 9 is_stmt 1
  17:src/../h/syscall_cpp.hpp ****     }
 631              		.loc 1 17 26 is_stmt 0
 632 024c 97050000 		lla	a1,_ZN14PeriodicThread7wrapperEPv
 632      93850500 
 633 0254 13858400 		addi	a0,s1,8
 634              	.LVL45:
 635 0258 97000000 		call	_Z17thread_create_cppPP7_threadPFvPvES2_@plt
 635      E7800000 
 636              	.LVL46:
 637              	.LBE27:
 638              	.LBE26:
  36:src/syscall_cpp.cpp ****     flag = true;
 639              		.loc 2 36 87
 640 0260 97070000 		lla	a5,_ZTV14PeriodicThread+16
 640      93870700 
 641 0268 23B0F400 		sd	a5,0(s1)
  37:src/syscall_cpp.cpp **** }
 642              		.loc 2 37 5 is_stmt 1
  37:src/syscall_cpp.cpp **** }
 643              		.loc 2 37 10 is_stmt 0
 644 026c 93071000 		li	a5,1
 645 0270 2388F400 		sb	a5,16(s1)
 646              	.LBE23:
  38:src/syscall_cpp.cpp **** 
 647              		.loc 2 38 1
 648 0274 83308101 		ld	ra,24(sp)
 649              		.cfi_restore 1
 650 0278 03340101 		ld	s0,16(sp)
 651              		.cfi_restore 8
 652              		.cfi_def_cfa 2, 32
 653 027c 83348100 		ld	s1,8(sp)
 654              		.cfi_restore 9
 655              	.LVL47:
 656 0280 03390100 		ld	s2,0(sp)
 657              		.cfi_restore 18
 658              	.LVL48:
 659 0284 13010102 		addi	sp,sp,32
 660              		.cfi_def_cfa_offset 0
 661 0288 67800000 		jr	ra
 662              		.cfi_endproc
 663              	.LFE68:
 665              		.globl	_ZN14PeriodicThreadC1Em
 666              		.set	_ZN14PeriodicThreadC1Em,_ZN14PeriodicThreadC2Em
 667              		.align	2
 668              		.globl	_ZN7Console4getcEv
 670              	_ZN7Console4getcEv:
 671              	.LFB71:
  49:src/syscall_cpp.cpp **** 
  50:src/syscall_cpp.cpp **** 
  51:src/syscall_cpp.cpp **** char Console::getc() {
 672              		.loc 2 51 22 is_stmt 1
 673              		.cfi_startproc
GAS LISTING /tmp/ccuqvJzk.s 			page 15


 674 028c 130101FF 		addi	sp,sp,-16
 675              		.cfi_def_cfa_offset 16
 676 0290 23341100 		sd	ra,8(sp)
 677 0294 23308100 		sd	s0,0(sp)
 678              		.cfi_offset 1, -8
 679              		.cfi_offset 8, -16
 680 0298 13040101 		addi	s0,sp,16
 681              		.cfi_def_cfa 8, 0
  52:src/syscall_cpp.cpp ****     return ::getc();
 682              		.loc 2 52 5
 683              		.loc 2 52 18 is_stmt 0
 684 029c 97000000 		call	_Z4getcv@plt
 684      E7800000 
 685              	.LVL49:
  53:src/syscall_cpp.cpp **** }
 686              		.loc 2 53 1
 687 02a4 83308100 		ld	ra,8(sp)
 688              		.cfi_restore 1
 689 02a8 03340100 		ld	s0,0(sp)
 690              		.cfi_restore 8
 691              		.cfi_def_cfa 2, 16
 692 02ac 13010101 		addi	sp,sp,16
 693              		.cfi_def_cfa_offset 0
 694 02b0 67800000 		jr	ra
 695              		.cfi_endproc
 696              	.LFE71:
 698              		.align	2
 699              		.globl	_ZN7Console4putcEc
 701              	_ZN7Console4putcEc:
 702              	.LFB72:
  54:src/syscall_cpp.cpp **** void Console::putc(char c) {
 703              		.loc 2 54 28 is_stmt 1
 704              		.cfi_startproc
 705              	.LVL50:
 706 02b4 130101FF 		addi	sp,sp,-16
 707              		.cfi_def_cfa_offset 16
 708 02b8 23341100 		sd	ra,8(sp)
 709 02bc 23308100 		sd	s0,0(sp)
 710              		.cfi_offset 1, -8
 711              		.cfi_offset 8, -16
 712 02c0 13040101 		addi	s0,sp,16
 713              		.cfi_def_cfa 8, 0
  55:src/syscall_cpp.cpp ****      ::putc(c);
 714              		.loc 2 55 6
 715              		.loc 2 55 12 is_stmt 0
 716 02c4 97000000 		call	_Z4putcc@plt
 716      E7800000 
 717              	.LVL51:
  56:src/syscall_cpp.cpp **** 
  57:src/syscall_cpp.cpp **** }...
 718              		.loc 2 57 1
 719 02cc 83308100 		ld	ra,8(sp)
 720              		.cfi_restore 1
 721 02d0 03340100 		ld	s0,0(sp)
 722              		.cfi_restore 8
 723              		.cfi_def_cfa 2, 16
 724 02d4 13010101 		addi	sp,sp,16
GAS LISTING /tmp/ccuqvJzk.s 			page 16


 725              		.cfi_def_cfa_offset 0
 726 02d8 67800000 		jr	ra
 727              		.cfi_endproc
 728              	.LFE72:
 730              		.weak	_ZTV6Thread
 731              		.section	.data.rel.ro.local._ZTV6Thread,"awG",@progbits,_ZTV6Thread,comdat
 732              		.align	3
 735              	_ZTV6Thread:
 736 0000 00000000 		.dword	0
 736      00000000 
 737 0008 00000000 		.dword	0
 737      00000000 
 738 0010 00000000 		.dword	_ZN6ThreadD1Ev
 738      00000000 
 739 0018 00000000 		.dword	_ZN6ThreadD0Ev
 739      00000000 
 740 0020 00000000 		.dword	_ZN6Thread3runEv
 740      00000000 
 741              		.weak	_ZTV14PeriodicThread
 742              		.section	.data.rel.ro.local._ZTV14PeriodicThread,"awG",@progbits,_ZTV14PeriodicThread,comdat
 743              		.align	3
 746              	_ZTV14PeriodicThread:
 747 0000 00000000 		.dword	0
 747      00000000 
 748 0008 00000000 		.dword	0
 748      00000000 
 749 0010 00000000 		.dword	_ZN14PeriodicThreadD1Ev
 749      00000000 
 750 0018 00000000 		.dword	_ZN14PeriodicThreadD0Ev
 750      00000000 
 751 0020 00000000 		.dword	_ZN6Thread3runEv
 751      00000000 
 752 0028 00000000 		.dword	_ZN14PeriodicThread18periodicActivationEv
 752      00000000 
 753              		.text
 754              	.Letext0:
 755              		.file 3 "src/../h/../lib/hw.h"
 756              		.file 4 "src/../h/syscall_c.hpp"
 757              		.file 5 "src/../h/thread.hpp"
GAS LISTING /tmp/ccuqvJzk.s 			page 17

