GAS LISTING /tmp/ccsYSDkg.s 			page 1


   1              		.file	"thread.cpp"
   2              		.option pic
   3              		.option norelax
   4              		.text
   5              	.Ltext0:
   6              		.align	2
   7              		.globl	_ZN7_thread13threadWrapperEv
   9              	_ZN7_thread13threadWrapperEv:
  10              	.LFB38:
  11              		.file 1 "src/thread.cpp"
   1:src/thread.cpp **** #include "../h/thread.hpp"
   2:src/thread.cpp **** _thread *_thread::running = nullptr;
   3:src/thread.cpp **** uint64 _thread::timeSliceCounter = 0;
   4:src/thread.cpp **** 
   5:src/thread.cpp **** int _thread::sleep(time_t time) {
   6:src/thread.cpp ****     if(time == 0) return 0;
   7:src/thread.cpp ****     _thread::running->timeToSleep = time;
   8:src/thread.cpp ****     sleepQueue::put(_thread::running);
   9:src/thread.cpp ****     timeSliceCounter = 0;
  10:src/thread.cpp ****     kdispatch(1);
  11:src/thread.cpp ****     return 0;
  12:src/thread.cpp **** }
  13:src/thread.cpp **** 
  14:src/thread.cpp **** int _thread::createThread(thread_t* handle, Body body, void*arg, uint64*stek, int flag) {
  15:src/thread.cpp ****     size_t sz = (sizeof(_thread)+sizeof(size_t))/MEM_BLOCK_SIZE + (((sizeof(_thread)+sizeof(size_t)
  16:src/thread.cpp ****     thread_t thread = (thread_t)(MemoryAllocator::kmem_alloc(sz));
  17:src/thread.cpp ****     thread->body = body;
  18:src/thread.cpp ****     thread->arg = arg;
  19:src/thread.cpp ****     thread->timeSlice = DEFAULT_TIME_SLICE;
  20:src/thread.cpp ****     thread->finished = false;
  21:src/thread.cpp ****     thread->timeToSleep = 0;
  22:src/thread.cpp ****     if (thread->body !=nullptr) {
  23:src/thread.cpp ****         thread->context.ra = (uint64) &threadWrapper;
  24:src/thread.cpp ****         thread->stack = stek;
  25:src/thread.cpp ****         thread->context.sp = (uint64) &thread->stack[DEFAULT_STACK_SIZE];
  26:src/thread.cpp ****         if(flag) Scheduler::put(thread);
  27:src/thread.cpp ****     }
  28:src/thread.cpp ****     else {
  29:src/thread.cpp ****         thread->context.ra = 0;
  30:src/thread.cpp ****         thread->context.sp = 0;
  31:src/thread.cpp ****         thread->stack = nullptr;
  32:src/thread.cpp ****     }
  33:src/thread.cpp ****     *handle = thread;
  34:src/thread.cpp ****     return 0;
  35:src/thread.cpp **** }
  36:src/thread.cpp **** 
  37:src/thread.cpp **** void _thread::kdispatch(int flag) {
  38:src/thread.cpp ****     _thread *old = running;
  39:src/thread.cpp ****     if (!old->isFinished() && flag == 0) { Scheduler::put(old); }
  40:src/thread.cpp ****     running = Scheduler::get();
  41:src/thread.cpp ****     _thread::contextSwitch(&old->context, &running->context);
  42:src/thread.cpp **** }
  43:src/thread.cpp **** 
  44:src/thread.cpp **** void _thread::threadWrapper() {
  12              		.loc 1 44 31
  13              		.cfi_startproc
  14 0000 130101FF 		addi	sp,sp,-16
GAS LISTING /tmp/ccsYSDkg.s 			page 2


  15              		.cfi_def_cfa_offset 16
  16 0004 23341100 		sd	ra,8(sp)
  17 0008 23308100 		sd	s0,0(sp)
  18              		.cfi_offset 1, -8
  19              		.cfi_offset 8, -16
  20 000c 13040101 		addi	s0,sp,16
  21              		.cfi_def_cfa 8, 0
  45:src/thread.cpp ****     Riscv::popSppSpie();
  22              		.loc 1 45 5
  23              		.loc 1 45 22 is_stmt 0
  24 0010 97000000 		call	_ZN5Riscv10popSppSpieEv@plt
  24      E7800000 
  25              	.LVL0:
  46:src/thread.cpp ****     running->body(running->arg);
  26              		.loc 1 46 5 is_stmt 1
  27              		.loc 1 46 14 is_stmt 0
  28 0018 97070000 		ld	a5,.LANCHOR0
  28      83B70700 
  29 0020 03B70701 		ld	a4,16(a5)
  30              		.loc 1 46 18
  31 0024 03B58701 		ld	a0,24(a5)
  32 0028 E7000700 		jalr	a4
  33              	.LVL1:
  47:src/thread.cpp ****     thread_exit();
  34              		.loc 1 47 5 is_stmt 1
  35              		.loc 1 47 16 is_stmt 0
  36 002c 97000000 		call	_Z11thread_exitv@plt
  36      E7800000 
  37              	.LVL2:
  48:src/thread.cpp **** }
  38              		.loc 1 48 1
  39 0034 83308100 		ld	ra,8(sp)
  40              		.cfi_restore 1
  41 0038 03340100 		ld	s0,0(sp)
  42              		.cfi_restore 8
  43              		.cfi_def_cfa 2, 16
  44 003c 13010101 		addi	sp,sp,16
  45              		.cfi_def_cfa_offset 0
  46 0040 67800000 		jr	ra
  47              		.cfi_endproc
  48              	.LFE38:
  50              		.align	2
  51              		.globl	_ZN7_thread12createThreadEPPS_PFvPvES2_Pmi
  53              	_ZN7_thread12createThreadEPPS_PFvPvES2_Pmi:
  54              	.LFB36:
  14:src/thread.cpp ****     size_t sz = (sizeof(_thread)+sizeof(size_t))/MEM_BLOCK_SIZE + (((sizeof(_thread)+sizeof(size_t)
  55              		.loc 1 14 89 is_stmt 1
  56              		.cfi_startproc
  57              	.LVL3:
  58 0044 130101FC 		addi	sp,sp,-64
  59              		.cfi_def_cfa_offset 64
  60 0048 233C1102 		sd	ra,56(sp)
  61 004c 23388102 		sd	s0,48(sp)
  62 0050 23349102 		sd	s1,40(sp)
  63 0054 23302103 		sd	s2,32(sp)
  64 0058 233C3101 		sd	s3,24(sp)
  65 005c 23384101 		sd	s4,16(sp)
GAS LISTING /tmp/ccsYSDkg.s 			page 3


  66 0060 23345101 		sd	s5,8(sp)
  67 0064 23306101 		sd	s6,0(sp)
  68              		.cfi_offset 1, -8
  69              		.cfi_offset 8, -16
  70              		.cfi_offset 9, -24
  71              		.cfi_offset 18, -32
  72              		.cfi_offset 19, -40
  73              		.cfi_offset 20, -48
  74              		.cfi_offset 21, -56
  75              		.cfi_offset 22, -64
  76 0068 13040104 		addi	s0,sp,64
  77              		.cfi_def_cfa 8, 0
  78 006c 130A0500 		mv	s4,a0
  79 0070 93890500 		mv	s3,a1
  80 0074 930A0600 		mv	s5,a2
  81 0078 13890600 		mv	s2,a3
  82 007c 130B0700 		mv	s6,a4
  15:src/thread.cpp ****     thread_t thread = (thread_t)(MemoryAllocator::kmem_alloc(sz));
  83              		.loc 1 15 5
  84              	.LVL4:
  16:src/thread.cpp ****     thread->body = body;
  85              		.loc 1 16 5
  16:src/thread.cpp ****     thread->body = body;
  86              		.loc 1 16 61 is_stmt 0
  87 0080 13052000 		li	a0,2
  88              	.LVL5:
  89 0084 97000000 		call	_ZN15MemoryAllocator10kmem_allocEm@plt
  89      E7800000 
  90              	.LVL6:
  91 008c 93040500 		mv	s1,a0
  92              	.LVL7:
  17:src/thread.cpp ****     thread->arg = arg;
  93              		.loc 1 17 5 is_stmt 1
  17:src/thread.cpp ****     thread->arg = arg;
  94              		.loc 1 17 18 is_stmt 0
  95 0090 23383501 		sd	s3,16(a0)
  18:src/thread.cpp ****     thread->timeSlice = DEFAULT_TIME_SLICE;
  96              		.loc 1 18 5 is_stmt 1
  18:src/thread.cpp ****     thread->timeSlice = DEFAULT_TIME_SLICE;
  97              		.loc 1 18 17 is_stmt 0
  98 0094 233C5501 		sd	s5,24(a0)
  19:src/thread.cpp ****     thread->finished = false;
  99              		.loc 1 19 5 is_stmt 1
  19:src/thread.cpp ****     thread->finished = false;
 100              		.loc 1 19 23 is_stmt 0
 101 0098 93072000 		li	a5,2
 102 009c 2334F502 		sd	a5,40(a0)
  20:src/thread.cpp ****     thread->timeToSleep = 0;
 103              		.loc 1 20 5 is_stmt 1
  20:src/thread.cpp ****     thread->timeToSleep = 0;
 104              		.loc 1 20 22 is_stmt 0
 105 00a0 23080502 		sb	zero,48(a0)
  21:src/thread.cpp ****     if (thread->body !=nullptr) {
 106              		.loc 1 21 5 is_stmt 1
  21:src/thread.cpp ****     if (thread->body !=nullptr) {
 107              		.loc 1 21 25 is_stmt 0
 108 00a4 233C0502 		sd	zero,56(a0)
GAS LISTING /tmp/ccsYSDkg.s 			page 4


  22:src/thread.cpp ****         thread->context.ra = (uint64) &threadWrapper;
 109              		.loc 1 22 5 is_stmt 1
 110 00a8 63800906 		beqz	s3,.L4
  23:src/thread.cpp ****         thread->stack = stek;
 111              		.loc 1 23 9
  23:src/thread.cpp ****         thread->stack = stek;
 112              		.loc 1 23 28 is_stmt 0
 113 00ac 97070000 		lla	a5,_ZN7_thread13threadWrapperEv
 113      93870700 
 114 00b4 2330F500 		sd	a5,0(a0)
  24:src/thread.cpp ****         thread->context.sp = (uint64) &thread->stack[DEFAULT_STACK_SIZE];
 115              		.loc 1 24 9 is_stmt 1
  24:src/thread.cpp ****         thread->context.sp = (uint64) &thread->stack[DEFAULT_STACK_SIZE];
 116              		.loc 1 24 23 is_stmt 0
 117 00b8 23302503 		sd	s2,32(a0)
  25:src/thread.cpp ****         if(flag) Scheduler::put(thread);
 118              		.loc 1 25 9 is_stmt 1
  25:src/thread.cpp ****         if(flag) Scheduler::put(thread);
 119              		.loc 1 25 39 is_stmt 0
 120 00bc B7860000 		li	a3,32768
 121 00c0 3309D900 		add	s2,s2,a3
 122              	.LVL8:
  25:src/thread.cpp ****         if(flag) Scheduler::put(thread);
 123              		.loc 1 25 28
 124 00c4 23342501 		sd	s2,8(a0)
  26:src/thread.cpp ****     }
 125              		.loc 1 26 9 is_stmt 1
 126 00c8 631A0B02 		bnez	s6,.L7
 127              	.LVL9:
 128              	.L5:
  33:src/thread.cpp ****     return 0;
 129              		.loc 1 33 5
  33:src/thread.cpp ****     return 0;
 130              		.loc 1 33 13 is_stmt 0
 131 00cc 23309A00 		sd	s1,0(s4)
  34:src/thread.cpp **** }
 132              		.loc 1 34 5 is_stmt 1
  35:src/thread.cpp **** 
 133              		.loc 1 35 1 is_stmt 0
 134 00d0 13050000 		li	a0,0
 135 00d4 83308103 		ld	ra,56(sp)
 136              		.cfi_remember_state
 137              		.cfi_restore 1
 138 00d8 03340103 		ld	s0,48(sp)
 139              		.cfi_restore 8
 140              		.cfi_def_cfa 2, 64
 141 00dc 83348102 		ld	s1,40(sp)
 142              		.cfi_restore 9
 143              	.LVL10:
 144 00e0 03390102 		ld	s2,32(sp)
 145              		.cfi_restore 18
 146 00e4 83398101 		ld	s3,24(sp)
 147              		.cfi_restore 19
 148              	.LVL11:
 149 00e8 033A0101 		ld	s4,16(sp)
 150              		.cfi_restore 20
 151              	.LVL12:
GAS LISTING /tmp/ccsYSDkg.s 			page 5


 152 00ec 833A8100 		ld	s5,8(sp)
 153              		.cfi_restore 21
 154              	.LVL13:
 155 00f0 033B0100 		ld	s6,0(sp)
 156              		.cfi_restore 22
 157 00f4 13010104 		addi	sp,sp,64
 158              		.cfi_def_cfa_offset 0
 159 00f8 67800000 		jr	ra
 160              	.LVL14:
 161              	.L7:
 162              		.cfi_restore_state
  26:src/thread.cpp ****     }
 163              		.loc 1 26 18 is_stmt 1 discriminator 1
  26:src/thread.cpp ****     }
 164              		.loc 1 26 32 is_stmt 0 discriminator 1
 165 00fc 97000000 		call	_ZN9Scheduler3putEP7_thread@plt
 165      E7800000 
 166              	.LVL15:
 167 0104 6FF09FFC 		j	.L5
 168              	.LVL16:
 169              	.L4:
  29:src/thread.cpp ****         thread->context.sp = 0;
 170              		.loc 1 29 9 is_stmt 1
  29:src/thread.cpp ****         thread->context.sp = 0;
 171              		.loc 1 29 28 is_stmt 0
 172 0108 23300500 		sd	zero,0(a0)
  30:src/thread.cpp ****         thread->stack = nullptr;
 173              		.loc 1 30 9 is_stmt 1
  30:src/thread.cpp ****         thread->stack = nullptr;
 174              		.loc 1 30 28 is_stmt 0
 175 010c 23340500 		sd	zero,8(a0)
  31:src/thread.cpp ****     }
 176              		.loc 1 31 9 is_stmt 1
  31:src/thread.cpp ****     }
 177              		.loc 1 31 23 is_stmt 0
 178 0110 23300502 		sd	zero,32(a0)
 179 0114 6FF09FFB 		j	.L5
 180              		.cfi_endproc
 181              	.LFE36:
 183              		.align	2
 184              		.globl	_ZN7_thread9kdispatchEi
 186              	_ZN7_thread9kdispatchEi:
 187              	.LFB37:
  37:src/thread.cpp ****     _thread *old = running;
 188              		.loc 1 37 35 is_stmt 1
 189              		.cfi_startproc
 190              	.LVL17:
 191 0118 130101FE 		addi	sp,sp,-32
 192              		.cfi_def_cfa_offset 32
 193 011c 233C1100 		sd	ra,24(sp)
 194 0120 23388100 		sd	s0,16(sp)
 195 0124 23349100 		sd	s1,8(sp)
 196              		.cfi_offset 1, -8
 197              		.cfi_offset 8, -16
 198              		.cfi_offset 9, -24
 199 0128 13040102 		addi	s0,sp,32
 200              		.cfi_def_cfa 8, 0
GAS LISTING /tmp/ccsYSDkg.s 			page 6


  38:src/thread.cpp ****     if (!old->isFinished() && flag == 0) { Scheduler::put(old); }
 201              		.loc 1 38 5
  38:src/thread.cpp ****     if (!old->isFinished() && flag == 0) { Scheduler::put(old); }
 202              		.loc 1 38 14 is_stmt 0
 203 012c 97040000 		ld	s1,.LANCHOR0
 203      83B40400 
 204              	.LVL18:
  39:src/thread.cpp ****     running = Scheduler::get();
 205              		.loc 1 39 5 is_stmt 1
 206              	.LBB4:
 207              	.LBB5:
 208              		.file 2 "src/../h/thread.hpp"
   1:src/../h/thread.hpp **** #ifndef PROJECT_BASE_V1_0_THREAD_HPP
   2:src/../h/thread.hpp **** #define PROJECT_BASE_V1_0_THREAD_HPP
   3:src/../h/thread.hpp **** #include "../lib/hw.h"
   4:src/../h/thread.hpp **** #include "../h/scheduler.hpp"
   5:src/../h/thread.hpp **** #include "../h/riscV.hpp"
   6:src/../h/thread.hpp **** #include "../h/syscall_c.hpp"
   7:src/../h/thread.hpp **** #include "../h/sleepQueue.hpp"
   8:src/../h/thread.hpp **** #include "../h/memory.hpp"
   9:src/../h/thread.hpp **** 
  10:src/../h/thread.hpp **** class _thread {
  11:src/../h/thread.hpp **** public:
  12:src/../h/thread.hpp ****     ~_thread() {
  13:src/../h/thread.hpp ****         if(stack)
  14:src/../h/thread.hpp ****             MemoryAllocator::kmem_free(stack);
  15:src/../h/thread.hpp ****     }
  16:src/../h/thread.hpp ****     bool isFinished() const { return finished; }
 209              		.loc 2 16 31
 210              		.loc 2 16 38 is_stmt 0
 211 0134 83C70403 		lbu	a5,48(s1)
 212              	.LVL19:
 213              	.LBE5:
 214              	.LBE4:
  39:src/thread.cpp ****     running = Scheduler::get();
 215              		.loc 1 39 28
 216 0138 63940700 		bnez	a5,.L9
  39:src/thread.cpp ****     running = Scheduler::get();
 217              		.loc 1 39 28 discriminator 1
 218 013c 630C0502 		beqz	a0,.L11
 219              	.LVL20:
 220              	.L9:
  40:src/thread.cpp ****     _thread::contextSwitch(&old->context, &running->context);
 221              		.loc 1 40 5 is_stmt 1
  40:src/thread.cpp ****     _thread::contextSwitch(&old->context, &running->context);
 222              		.loc 1 40 29 is_stmt 0
 223 0140 97000000 		call	_ZN9Scheduler3getEv@plt
 223      E7800000 
 224              	.LVL21:
 225 0148 93050500 		mv	a1,a0
  40:src/thread.cpp ****     _thread::contextSwitch(&old->context, &running->context);
 226              		.loc 1 40 13
 227 014c 97070000 		sd	a0,.LANCHOR0,a5
 227      23B0A700 
  41:src/thread.cpp **** }
 228              		.loc 1 41 5 is_stmt 1
  41:src/thread.cpp **** }
GAS LISTING /tmp/ccsYSDkg.s 			page 7


 229              		.loc 1 41 27 is_stmt 0
 230 0154 13850400 		mv	a0,s1
 231 0158 97000000 		call	_ZN7_thread13contextSwitchEPNS_7ContextES1_@plt
 231      E7800000 
 232              	.LVL22:
  42:src/thread.cpp **** 
 233              		.loc 1 42 1
 234 0160 83308101 		ld	ra,24(sp)
 235              		.cfi_remember_state
 236              		.cfi_restore 1
 237 0164 03340101 		ld	s0,16(sp)
 238              		.cfi_restore 8
 239              		.cfi_def_cfa 2, 32
 240 0168 83348100 		ld	s1,8(sp)
 241              		.cfi_restore 9
 242              	.LVL23:
 243 016c 13010102 		addi	sp,sp,32
 244              		.cfi_def_cfa_offset 0
 245 0170 67800000 		jr	ra
 246              	.LVL24:
 247              	.L11:
 248              		.cfi_restore_state
  39:src/thread.cpp ****     running = Scheduler::get();
 249              		.loc 1 39 44 is_stmt 1
  39:src/thread.cpp ****     running = Scheduler::get();
 250              		.loc 1 39 58 is_stmt 0
 251 0174 13850400 		mv	a0,s1
 252              	.LVL25:
 253 0178 97000000 		call	_ZN9Scheduler3putEP7_thread@plt
 253      E7800000 
 254              	.LVL26:
 255 0180 6FF01FFC 		j	.L9
 256              		.cfi_endproc
 257              	.LFE37:
 259              		.align	2
 260              		.globl	_ZN7_thread5sleepEm
 262              	_ZN7_thread5sleepEm:
 263              	.LFB35:
   5:src/thread.cpp ****     if(time == 0) return 0;
 264              		.loc 1 5 33 is_stmt 1
 265              		.cfi_startproc
 266              	.LVL27:
   6:src/thread.cpp ****     _thread::running->timeToSleep = time;
 267              		.loc 1 6 5
 268 0184 63160500 		bnez	a0,.L18
  12:src/thread.cpp **** 
 269              		.loc 1 12 1 is_stmt 0
 270 0188 13050000 		li	a0,0
 271              	.LVL28:
 272 018c 67800000 		ret
 273              	.LVL29:
 274              	.L18:
   5:src/thread.cpp ****     if(time == 0) return 0;
 275              		.loc 1 5 33
 276 0190 130101FE 		addi	sp,sp,-32
 277              		.cfi_def_cfa_offset 32
 278 0194 233C1100 		sd	ra,24(sp)
GAS LISTING /tmp/ccsYSDkg.s 			page 8


 279 0198 23388100 		sd	s0,16(sp)
 280 019c 23349100 		sd	s1,8(sp)
 281              		.cfi_offset 1, -8
 282              		.cfi_offset 8, -16
 283              		.cfi_offset 9, -24
 284 01a0 13040102 		addi	s0,sp,32
 285              		.cfi_def_cfa 8, 0
 286 01a4 93070500 		mv	a5,a0
   7:src/thread.cpp ****     sleepQueue::put(_thread::running);
 287              		.loc 1 7 5 is_stmt 1
   7:src/thread.cpp ****     sleepQueue::put(_thread::running);
 288              		.loc 1 7 23 is_stmt 0
 289 01a8 97040000 		lla	s1,.LANCHOR0
 289      93840400 
 290 01b0 03B50400 		ld	a0,0(s1)
 291              	.LVL30:
   7:src/thread.cpp ****     sleepQueue::put(_thread::running);
 292              		.loc 1 7 35
 293 01b4 233CF502 		sd	a5,56(a0)
   8:src/thread.cpp ****     timeSliceCounter = 0;
 294              		.loc 1 8 5 is_stmt 1
   8:src/thread.cpp ****     timeSliceCounter = 0;
 295              		.loc 1 8 20 is_stmt 0
 296 01b8 97000000 		call	_ZN10sleepQueue3putEP7_thread@plt
 296      E7800000 
 297              	.LVL31:
   9:src/thread.cpp ****     kdispatch(1);
 298              		.loc 1 9 5 is_stmt 1
   9:src/thread.cpp ****     kdispatch(1);
 299              		.loc 1 9 22 is_stmt 0
 300 01c0 23B40400 		sd	zero,8(s1)
  10:src/thread.cpp ****     return 0;
 301              		.loc 1 10 5 is_stmt 1
  10:src/thread.cpp ****     return 0;
 302              		.loc 1 10 14 is_stmt 0
 303 01c4 13051000 		li	a0,1
 304 01c8 97000000 		call	_ZN7_thread9kdispatchEi
 304      E7800000 
 305              	.LVL32:
  11:src/thread.cpp **** }
 306              		.loc 1 11 5 is_stmt 1
  12:src/thread.cpp **** 
 307              		.loc 1 12 1 is_stmt 0
 308 01d0 13050000 		li	a0,0
 309 01d4 83308101 		ld	ra,24(sp)
 310              		.cfi_restore 1
 311 01d8 03340101 		ld	s0,16(sp)
 312              		.cfi_restore 8
 313              		.cfi_def_cfa 2, 32
 314 01dc 83348100 		ld	s1,8(sp)
 315              		.cfi_restore 9
 316 01e0 13010102 		addi	sp,sp,32
 317              		.cfi_def_cfa_offset 0
 318 01e4 67800000 		jr	ra
 319              		.cfi_endproc
 320              	.LFE35:
 322              		.align	2
GAS LISTING /tmp/ccsYSDkg.s 			page 9


 323              		.globl	_ZN7_thread14addToSchedulerEPS_
 325              	_ZN7_thread14addToSchedulerEPS_:
 326              	.LFB39:
  49:src/thread.cpp **** 
  50:src/thread.cpp **** void _thread::addToScheduler(thread_t t) {
 327              		.loc 1 50 42 is_stmt 1
 328              		.cfi_startproc
 329              	.LVL33:
 330 01e8 130101FF 		addi	sp,sp,-16
 331              		.cfi_def_cfa_offset 16
 332 01ec 23341100 		sd	ra,8(sp)
 333 01f0 23308100 		sd	s0,0(sp)
 334              		.cfi_offset 1, -8
 335              		.cfi_offset 8, -16
 336 01f4 13040101 		addi	s0,sp,16
 337              		.cfi_def_cfa 8, 0
  51:src/thread.cpp ****     Scheduler::put(t);
 338              		.loc 1 51 5
 339              		.loc 1 51 19 is_stmt 0
 340 01f8 97000000 		call	_ZN9Scheduler3putEP7_thread@plt
 340      E7800000 
 341              	.LVL34:
  52:src/thread.cpp **** }
 342              		.loc 1 52 1
 343 0200 83308100 		ld	ra,8(sp)
 344              		.cfi_restore 1
 345 0204 03340100 		ld	s0,0(sp)
 346              		.cfi_restore 8
 347              		.cfi_def_cfa 2, 16
 348 0208 13010101 		addi	sp,sp,16
 349              		.cfi_def_cfa_offset 0
 350 020c 67800000 		jr	ra
 351              		.cfi_endproc
 352              	.LFE39:
 354              		.globl	_ZN7_thread16timeSliceCounterE
 355              		.globl	_ZN7_thread7runningE
 356              		.bss
 357              		.align	3
 358              		.set	.LANCHOR0,. + 0
 361              	_ZN7_thread7runningE:
 362 0000 00000000 		.zero	8
 362      00000000 
 365              	_ZN7_thread16timeSliceCounterE:
 366 0008 00000000 		.zero	8
 366      00000000 
 367              		.text
 368              	.Letext0:
 369              		.file 3 "src/../h/../lib/hw.h"
 370              		.file 4 "src/../h/../h/memory.hpp"
 371              		.file 5 "src/../h/../h/syscall_c.hpp"
 372              		.file 6 "src/../h/../h/scheduler.hpp"
 373              		.file 7 "src/../h/../h/riscV.hpp"
 374              		.file 8 "src/../h/../h/sleepQueue.hpp"
GAS LISTING /tmp/ccsYSDkg.s 			page 10

